ARM GAS  /tmp/cckNveCu.s 			page 1


   1              		.cpu cortex-m7
   2              		.arch armv7e-m
   3              		.fpu fpv5-d16
   4              		.eabi_attribute 28, 1
   5              		.eabi_attribute 20, 1
   6              		.eabi_attribute 21, 1
   7              		.eabi_attribute 23, 3
   8              		.eabi_attribute 24, 1
   9              		.eabi_attribute 25, 1
  10              		.eabi_attribute 26, 1
  11              		.eabi_attribute 30, 1
  12              		.eabi_attribute 34, 1
  13              		.eabi_attribute 18, 4
  14              		.file	"heap_4.c"
  15              		.text
  16              	.Ltext0:
  17              		.cfi_sections	.debug_frame
  18              		.section	.text.prvHeapInit,"ax",%progbits
  19              		.align	1
  20              		.syntax unified
  21              		.thumb
  22              		.thumb_func
  24              	prvHeapInit:
  25              	.LFB10:
  26              		.file 1 "Middlewares/Third_Party/FreeRTOS/portable/MemMang/heap_4.c"
   1:Middlewares/Third_Party/FreeRTOS/portable/MemMang/heap_4.c **** /*
   2:Middlewares/Third_Party/FreeRTOS/portable/MemMang/heap_4.c ****  * FreeRTOS Kernel V10.5.0
   3:Middlewares/Third_Party/FreeRTOS/portable/MemMang/heap_4.c ****  * Copyright (C) 2021 Amazon.com, Inc. or its affiliates.  All Rights Reserved.
   4:Middlewares/Third_Party/FreeRTOS/portable/MemMang/heap_4.c ****  *
   5:Middlewares/Third_Party/FreeRTOS/portable/MemMang/heap_4.c ****  * SPDX-License-Identifier: MIT
   6:Middlewares/Third_Party/FreeRTOS/portable/MemMang/heap_4.c ****  *
   7:Middlewares/Third_Party/FreeRTOS/portable/MemMang/heap_4.c ****  * Permission is hereby granted, free of charge, to any person obtaining a copy of
   8:Middlewares/Third_Party/FreeRTOS/portable/MemMang/heap_4.c ****  * this software and associated documentation files (the "Software"), to deal in
   9:Middlewares/Third_Party/FreeRTOS/portable/MemMang/heap_4.c ****  * the Software without restriction, including without limitation the rights to
  10:Middlewares/Third_Party/FreeRTOS/portable/MemMang/heap_4.c ****  * use, copy, modify, merge, publish, distribute, sublicense, and/or sell copies of
  11:Middlewares/Third_Party/FreeRTOS/portable/MemMang/heap_4.c ****  * the Software, and to permit persons to whom the Software is furnished to do so,
  12:Middlewares/Third_Party/FreeRTOS/portable/MemMang/heap_4.c ****  * subject to the following conditions:
  13:Middlewares/Third_Party/FreeRTOS/portable/MemMang/heap_4.c ****  *
  14:Middlewares/Third_Party/FreeRTOS/portable/MemMang/heap_4.c ****  * The above copyright notice and this permission notice shall be included in all
  15:Middlewares/Third_Party/FreeRTOS/portable/MemMang/heap_4.c ****  * copies or substantial portions of the Software.
  16:Middlewares/Third_Party/FreeRTOS/portable/MemMang/heap_4.c ****  *
  17:Middlewares/Third_Party/FreeRTOS/portable/MemMang/heap_4.c ****  * THE SOFTWARE IS PROVIDED "AS IS", WITHOUT WARRANTY OF ANY KIND, EXPRESS OR
  18:Middlewares/Third_Party/FreeRTOS/portable/MemMang/heap_4.c ****  * IMPLIED, INCLUDING BUT NOT LIMITED TO THE WARRANTIES OF MERCHANTABILITY, FITNESS
  19:Middlewares/Third_Party/FreeRTOS/portable/MemMang/heap_4.c ****  * FOR A PARTICULAR PURPOSE AND NONINFRINGEMENT. IN NO EVENT SHALL THE AUTHORS OR
  20:Middlewares/Third_Party/FreeRTOS/portable/MemMang/heap_4.c ****  * COPYRIGHT HOLDERS BE LIABLE FOR ANY CLAIM, DAMAGES OR OTHER LIABILITY, WHETHER
  21:Middlewares/Third_Party/FreeRTOS/portable/MemMang/heap_4.c ****  * IN AN ACTION OF CONTRACT, TORT OR OTHERWISE, ARISING FROM, OUT OF OR IN
  22:Middlewares/Third_Party/FreeRTOS/portable/MemMang/heap_4.c ****  * CONNECTION WITH THE SOFTWARE OR THE USE OR OTHER DEALINGS IN THE SOFTWARE.
  23:Middlewares/Third_Party/FreeRTOS/portable/MemMang/heap_4.c ****  *
  24:Middlewares/Third_Party/FreeRTOS/portable/MemMang/heap_4.c ****  * https://www.FreeRTOS.org
  25:Middlewares/Third_Party/FreeRTOS/portable/MemMang/heap_4.c ****  * https://github.com/FreeRTOS
  26:Middlewares/Third_Party/FreeRTOS/portable/MemMang/heap_4.c ****  *
  27:Middlewares/Third_Party/FreeRTOS/portable/MemMang/heap_4.c ****  */
  28:Middlewares/Third_Party/FreeRTOS/portable/MemMang/heap_4.c **** 
  29:Middlewares/Third_Party/FreeRTOS/portable/MemMang/heap_4.c **** /*
  30:Middlewares/Third_Party/FreeRTOS/portable/MemMang/heap_4.c ****  * A sample implementation of pvPortMalloc() and vPortFree() that combines
  31:Middlewares/Third_Party/FreeRTOS/portable/MemMang/heap_4.c ****  * (coalescences) adjacent memory blocks as they are freed, and in so doing
  32:Middlewares/Third_Party/FreeRTOS/portable/MemMang/heap_4.c ****  * limits memory fragmentation.
ARM GAS  /tmp/cckNveCu.s 			page 2


  33:Middlewares/Third_Party/FreeRTOS/portable/MemMang/heap_4.c ****  *
  34:Middlewares/Third_Party/FreeRTOS/portable/MemMang/heap_4.c ****  * See heap_1.c, heap_2.c and heap_3.c for alternative implementations, and the
  35:Middlewares/Third_Party/FreeRTOS/portable/MemMang/heap_4.c ****  * memory management pages of https://www.FreeRTOS.org for more information.
  36:Middlewares/Third_Party/FreeRTOS/portable/MemMang/heap_4.c ****  */
  37:Middlewares/Third_Party/FreeRTOS/portable/MemMang/heap_4.c **** #include <stdlib.h>
  38:Middlewares/Third_Party/FreeRTOS/portable/MemMang/heap_4.c **** #include <string.h>
  39:Middlewares/Third_Party/FreeRTOS/portable/MemMang/heap_4.c **** 
  40:Middlewares/Third_Party/FreeRTOS/portable/MemMang/heap_4.c **** /* Defining MPU_WRAPPERS_INCLUDED_FROM_API_FILE prevents task.h from redefining
  41:Middlewares/Third_Party/FreeRTOS/portable/MemMang/heap_4.c ****  * all the API functions to use the MPU wrappers.  That should only be done when
  42:Middlewares/Third_Party/FreeRTOS/portable/MemMang/heap_4.c ****  * task.h is included from an application file. */
  43:Middlewares/Third_Party/FreeRTOS/portable/MemMang/heap_4.c **** #define MPU_WRAPPERS_INCLUDED_FROM_API_FILE
  44:Middlewares/Third_Party/FreeRTOS/portable/MemMang/heap_4.c **** 
  45:Middlewares/Third_Party/FreeRTOS/portable/MemMang/heap_4.c **** #include "FreeRTOS.h"
  46:Middlewares/Third_Party/FreeRTOS/portable/MemMang/heap_4.c **** #include "task.h"
  47:Middlewares/Third_Party/FreeRTOS/portable/MemMang/heap_4.c **** 
  48:Middlewares/Third_Party/FreeRTOS/portable/MemMang/heap_4.c **** #undef MPU_WRAPPERS_INCLUDED_FROM_API_FILE
  49:Middlewares/Third_Party/FreeRTOS/portable/MemMang/heap_4.c **** 
  50:Middlewares/Third_Party/FreeRTOS/portable/MemMang/heap_4.c **** #if ( configSUPPORT_DYNAMIC_ALLOCATION == 0 )
  51:Middlewares/Third_Party/FreeRTOS/portable/MemMang/heap_4.c ****     #error This file must not be used if configSUPPORT_DYNAMIC_ALLOCATION is 0
  52:Middlewares/Third_Party/FreeRTOS/portable/MemMang/heap_4.c **** #endif
  53:Middlewares/Third_Party/FreeRTOS/portable/MemMang/heap_4.c **** 
  54:Middlewares/Third_Party/FreeRTOS/portable/MemMang/heap_4.c **** #ifndef configHEAP_CLEAR_MEMORY_ON_FREE
  55:Middlewares/Third_Party/FreeRTOS/portable/MemMang/heap_4.c ****     #define configHEAP_CLEAR_MEMORY_ON_FREE    0
  56:Middlewares/Third_Party/FreeRTOS/portable/MemMang/heap_4.c **** #endif
  57:Middlewares/Third_Party/FreeRTOS/portable/MemMang/heap_4.c **** 
  58:Middlewares/Third_Party/FreeRTOS/portable/MemMang/heap_4.c **** /* Block sizes must not get too small. */
  59:Middlewares/Third_Party/FreeRTOS/portable/MemMang/heap_4.c **** #define heapMINIMUM_BLOCK_SIZE    ( ( size_t ) ( xHeapStructSize << 1 ) )
  60:Middlewares/Third_Party/FreeRTOS/portable/MemMang/heap_4.c **** 
  61:Middlewares/Third_Party/FreeRTOS/portable/MemMang/heap_4.c **** /* Assumes 8bit bytes! */
  62:Middlewares/Third_Party/FreeRTOS/portable/MemMang/heap_4.c **** #define heapBITS_PER_BYTE         ( ( size_t ) 8 )
  63:Middlewares/Third_Party/FreeRTOS/portable/MemMang/heap_4.c **** 
  64:Middlewares/Third_Party/FreeRTOS/portable/MemMang/heap_4.c **** /* Max value that fits in a size_t type. */
  65:Middlewares/Third_Party/FreeRTOS/portable/MemMang/heap_4.c **** #define heapSIZE_MAX              ( ~( ( size_t ) 0 ) )
  66:Middlewares/Third_Party/FreeRTOS/portable/MemMang/heap_4.c **** 
  67:Middlewares/Third_Party/FreeRTOS/portable/MemMang/heap_4.c **** /* Check if multiplying a and b will result in overflow. */
  68:Middlewares/Third_Party/FreeRTOS/portable/MemMang/heap_4.c **** #define heapMULTIPLY_WILL_OVERFLOW( a, b )    ( ( ( a ) > 0 ) && ( ( b ) > ( heapSIZE_MAX / ( a ) )
  69:Middlewares/Third_Party/FreeRTOS/portable/MemMang/heap_4.c **** 
  70:Middlewares/Third_Party/FreeRTOS/portable/MemMang/heap_4.c **** /* Check if adding a and b will result in overflow. */
  71:Middlewares/Third_Party/FreeRTOS/portable/MemMang/heap_4.c **** #define heapADD_WILL_OVERFLOW( a, b )         ( ( a ) > ( heapSIZE_MAX - ( b ) ) )
  72:Middlewares/Third_Party/FreeRTOS/portable/MemMang/heap_4.c **** 
  73:Middlewares/Third_Party/FreeRTOS/portable/MemMang/heap_4.c **** /* MSB of the xBlockSize member of an BlockLink_t structure is used to track
  74:Middlewares/Third_Party/FreeRTOS/portable/MemMang/heap_4.c ****  * the allocation status of a block.  When MSB of the xBlockSize member of
  75:Middlewares/Third_Party/FreeRTOS/portable/MemMang/heap_4.c ****  * an BlockLink_t structure is set then the block belongs to the application.
  76:Middlewares/Third_Party/FreeRTOS/portable/MemMang/heap_4.c ****  * When the bit is free the block is still part of the free heap space. */
  77:Middlewares/Third_Party/FreeRTOS/portable/MemMang/heap_4.c **** #define heapBLOCK_ALLOCATED_BITMASK    ( ( ( size_t ) 1 ) << ( ( sizeof( size_t ) * heapBITS_PER_BY
  78:Middlewares/Third_Party/FreeRTOS/portable/MemMang/heap_4.c **** #define heapBLOCK_SIZE_IS_VALID( xBlockSize )    ( ( ( xBlockSize ) & heapBLOCK_ALLOCATED_BITMASK )
  79:Middlewares/Third_Party/FreeRTOS/portable/MemMang/heap_4.c **** #define heapBLOCK_IS_ALLOCATED( pxBlock )        ( ( ( pxBlock->xBlockSize ) & heapBLOCK_ALLOCATED_
  80:Middlewares/Third_Party/FreeRTOS/portable/MemMang/heap_4.c **** #define heapALLOCATE_BLOCK( pxBlock )            ( ( pxBlock->xBlockSize ) |= heapBLOCK_ALLOCATED_B
  81:Middlewares/Third_Party/FreeRTOS/portable/MemMang/heap_4.c **** #define heapFREE_BLOCK( pxBlock )                ( ( pxBlock->xBlockSize ) &= ~heapBLOCK_ALLOCATED_
  82:Middlewares/Third_Party/FreeRTOS/portable/MemMang/heap_4.c **** 
  83:Middlewares/Third_Party/FreeRTOS/portable/MemMang/heap_4.c **** /*-----------------------------------------------------------*/
  84:Middlewares/Third_Party/FreeRTOS/portable/MemMang/heap_4.c **** 
  85:Middlewares/Third_Party/FreeRTOS/portable/MemMang/heap_4.c **** /* Allocate the memory for the heap. */
  86:Middlewares/Third_Party/FreeRTOS/portable/MemMang/heap_4.c **** #if ( configAPPLICATION_ALLOCATED_HEAP == 1 )
  87:Middlewares/Third_Party/FreeRTOS/portable/MemMang/heap_4.c **** 
  88:Middlewares/Third_Party/FreeRTOS/portable/MemMang/heap_4.c **** /* The application writer has already defined the array used for the RTOS
  89:Middlewares/Third_Party/FreeRTOS/portable/MemMang/heap_4.c **** * heap - probably so it can be placed in a special segment or address. */
ARM GAS  /tmp/cckNveCu.s 			page 3


  90:Middlewares/Third_Party/FreeRTOS/portable/MemMang/heap_4.c ****     extern uint8_t ucHeap[ configTOTAL_HEAP_SIZE ];
  91:Middlewares/Third_Party/FreeRTOS/portable/MemMang/heap_4.c **** #else
  92:Middlewares/Third_Party/FreeRTOS/portable/MemMang/heap_4.c ****     PRIVILEGED_DATA static uint8_t ucHeap[ configTOTAL_HEAP_SIZE ];
  93:Middlewares/Third_Party/FreeRTOS/portable/MemMang/heap_4.c **** #endif /* configAPPLICATION_ALLOCATED_HEAP */
  94:Middlewares/Third_Party/FreeRTOS/portable/MemMang/heap_4.c **** 
  95:Middlewares/Third_Party/FreeRTOS/portable/MemMang/heap_4.c **** /* Define the linked list structure.  This is used to link free blocks in order
  96:Middlewares/Third_Party/FreeRTOS/portable/MemMang/heap_4.c ****  * of their memory address. */
  97:Middlewares/Third_Party/FreeRTOS/portable/MemMang/heap_4.c **** typedef struct A_BLOCK_LINK
  98:Middlewares/Third_Party/FreeRTOS/portable/MemMang/heap_4.c **** {
  99:Middlewares/Third_Party/FreeRTOS/portable/MemMang/heap_4.c ****     struct A_BLOCK_LINK * pxNextFreeBlock; /*<< The next free block in the list. */
 100:Middlewares/Third_Party/FreeRTOS/portable/MemMang/heap_4.c ****     size_t xBlockSize;                     /*<< The size of the free block. */
 101:Middlewares/Third_Party/FreeRTOS/portable/MemMang/heap_4.c **** } BlockLink_t;
 102:Middlewares/Third_Party/FreeRTOS/portable/MemMang/heap_4.c **** 
 103:Middlewares/Third_Party/FreeRTOS/portable/MemMang/heap_4.c **** /*-----------------------------------------------------------*/
 104:Middlewares/Third_Party/FreeRTOS/portable/MemMang/heap_4.c **** 
 105:Middlewares/Third_Party/FreeRTOS/portable/MemMang/heap_4.c **** /*
 106:Middlewares/Third_Party/FreeRTOS/portable/MemMang/heap_4.c ****  * Inserts a block of memory that is being freed into the correct position in
 107:Middlewares/Third_Party/FreeRTOS/portable/MemMang/heap_4.c ****  * the list of free memory blocks.  The block being freed will be merged with
 108:Middlewares/Third_Party/FreeRTOS/portable/MemMang/heap_4.c ****  * the block in front it and/or the block behind it if the memory blocks are
 109:Middlewares/Third_Party/FreeRTOS/portable/MemMang/heap_4.c ****  * adjacent to each other.
 110:Middlewares/Third_Party/FreeRTOS/portable/MemMang/heap_4.c ****  */
 111:Middlewares/Third_Party/FreeRTOS/portable/MemMang/heap_4.c **** static void prvInsertBlockIntoFreeList( BlockLink_t * pxBlockToInsert ) PRIVILEGED_FUNCTION;
 112:Middlewares/Third_Party/FreeRTOS/portable/MemMang/heap_4.c **** 
 113:Middlewares/Third_Party/FreeRTOS/portable/MemMang/heap_4.c **** /*
 114:Middlewares/Third_Party/FreeRTOS/portable/MemMang/heap_4.c ****  * Called automatically to setup the required heap structures the first time
 115:Middlewares/Third_Party/FreeRTOS/portable/MemMang/heap_4.c ****  * pvPortMalloc() is called.
 116:Middlewares/Third_Party/FreeRTOS/portable/MemMang/heap_4.c ****  */
 117:Middlewares/Third_Party/FreeRTOS/portable/MemMang/heap_4.c **** static void prvHeapInit( void ) PRIVILEGED_FUNCTION;
 118:Middlewares/Third_Party/FreeRTOS/portable/MemMang/heap_4.c **** 
 119:Middlewares/Third_Party/FreeRTOS/portable/MemMang/heap_4.c **** /*-----------------------------------------------------------*/
 120:Middlewares/Third_Party/FreeRTOS/portable/MemMang/heap_4.c **** 
 121:Middlewares/Third_Party/FreeRTOS/portable/MemMang/heap_4.c **** /* The size of the structure placed at the beginning of each allocated memory
 122:Middlewares/Third_Party/FreeRTOS/portable/MemMang/heap_4.c ****  * block must by correctly byte aligned. */
 123:Middlewares/Third_Party/FreeRTOS/portable/MemMang/heap_4.c **** static const size_t xHeapStructSize = ( sizeof( BlockLink_t ) + ( ( size_t ) ( portBYTE_ALIGNMENT -
 124:Middlewares/Third_Party/FreeRTOS/portable/MemMang/heap_4.c **** 
 125:Middlewares/Third_Party/FreeRTOS/portable/MemMang/heap_4.c **** /* Create a couple of list links to mark the start and end of the list. */
 126:Middlewares/Third_Party/FreeRTOS/portable/MemMang/heap_4.c **** PRIVILEGED_DATA static BlockLink_t xStart, * pxEnd = NULL;
 127:Middlewares/Third_Party/FreeRTOS/portable/MemMang/heap_4.c **** 
 128:Middlewares/Third_Party/FreeRTOS/portable/MemMang/heap_4.c **** /* Keeps track of the number of calls to allocate and free memory as well as the
 129:Middlewares/Third_Party/FreeRTOS/portable/MemMang/heap_4.c ****  * number of free bytes remaining, but says nothing about fragmentation. */
 130:Middlewares/Third_Party/FreeRTOS/portable/MemMang/heap_4.c **** PRIVILEGED_DATA static size_t xFreeBytesRemaining = 0U;
 131:Middlewares/Third_Party/FreeRTOS/portable/MemMang/heap_4.c **** PRIVILEGED_DATA static size_t xMinimumEverFreeBytesRemaining = 0U;
 132:Middlewares/Third_Party/FreeRTOS/portable/MemMang/heap_4.c **** PRIVILEGED_DATA static size_t xNumberOfSuccessfulAllocations = 0;
 133:Middlewares/Third_Party/FreeRTOS/portable/MemMang/heap_4.c **** PRIVILEGED_DATA static size_t xNumberOfSuccessfulFrees = 0;
 134:Middlewares/Third_Party/FreeRTOS/portable/MemMang/heap_4.c **** 
 135:Middlewares/Third_Party/FreeRTOS/portable/MemMang/heap_4.c **** /*-----------------------------------------------------------*/
 136:Middlewares/Third_Party/FreeRTOS/portable/MemMang/heap_4.c **** 
 137:Middlewares/Third_Party/FreeRTOS/portable/MemMang/heap_4.c **** void * pvPortMalloc( size_t xWantedSize )
 138:Middlewares/Third_Party/FreeRTOS/portable/MemMang/heap_4.c **** {
 139:Middlewares/Third_Party/FreeRTOS/portable/MemMang/heap_4.c ****     BlockLink_t * pxBlock, * pxPreviousBlock, * pxNewBlockLink;
 140:Middlewares/Third_Party/FreeRTOS/portable/MemMang/heap_4.c ****     void * pvReturn = NULL;
 141:Middlewares/Third_Party/FreeRTOS/portable/MemMang/heap_4.c ****     size_t xAdditionalRequiredSize;
 142:Middlewares/Third_Party/FreeRTOS/portable/MemMang/heap_4.c **** 
 143:Middlewares/Third_Party/FreeRTOS/portable/MemMang/heap_4.c ****     vTaskSuspendAll();
 144:Middlewares/Third_Party/FreeRTOS/portable/MemMang/heap_4.c ****     {
 145:Middlewares/Third_Party/FreeRTOS/portable/MemMang/heap_4.c ****         /* If this is the first call to malloc then the heap will require
 146:Middlewares/Third_Party/FreeRTOS/portable/MemMang/heap_4.c ****          * initialisation to setup the list of free blocks. */
ARM GAS  /tmp/cckNveCu.s 			page 4


 147:Middlewares/Third_Party/FreeRTOS/portable/MemMang/heap_4.c ****         if( pxEnd == NULL )
 148:Middlewares/Third_Party/FreeRTOS/portable/MemMang/heap_4.c ****         {
 149:Middlewares/Third_Party/FreeRTOS/portable/MemMang/heap_4.c ****             prvHeapInit();
 150:Middlewares/Third_Party/FreeRTOS/portable/MemMang/heap_4.c ****         }
 151:Middlewares/Third_Party/FreeRTOS/portable/MemMang/heap_4.c ****         else
 152:Middlewares/Third_Party/FreeRTOS/portable/MemMang/heap_4.c ****         {
 153:Middlewares/Third_Party/FreeRTOS/portable/MemMang/heap_4.c ****             mtCOVERAGE_TEST_MARKER();
 154:Middlewares/Third_Party/FreeRTOS/portable/MemMang/heap_4.c ****         }
 155:Middlewares/Third_Party/FreeRTOS/portable/MemMang/heap_4.c **** 
 156:Middlewares/Third_Party/FreeRTOS/portable/MemMang/heap_4.c ****         if( xWantedSize > 0 )
 157:Middlewares/Third_Party/FreeRTOS/portable/MemMang/heap_4.c ****         {
 158:Middlewares/Third_Party/FreeRTOS/portable/MemMang/heap_4.c ****             /* The wanted size must be increased so it can contain a BlockLink_t
 159:Middlewares/Third_Party/FreeRTOS/portable/MemMang/heap_4.c ****              * structure in addition to the requested amount of bytes. Some
 160:Middlewares/Third_Party/FreeRTOS/portable/MemMang/heap_4.c ****              * additional increment may also be needed for alignment. */
 161:Middlewares/Third_Party/FreeRTOS/portable/MemMang/heap_4.c ****             xAdditionalRequiredSize = xHeapStructSize + portBYTE_ALIGNMENT - ( xWantedSize & portBY
 162:Middlewares/Third_Party/FreeRTOS/portable/MemMang/heap_4.c **** 
 163:Middlewares/Third_Party/FreeRTOS/portable/MemMang/heap_4.c ****             if( heapADD_WILL_OVERFLOW( xWantedSize, xAdditionalRequiredSize ) == 0 )
 164:Middlewares/Third_Party/FreeRTOS/portable/MemMang/heap_4.c ****             {
 165:Middlewares/Third_Party/FreeRTOS/portable/MemMang/heap_4.c ****                 xWantedSize += xAdditionalRequiredSize;
 166:Middlewares/Third_Party/FreeRTOS/portable/MemMang/heap_4.c ****             }
 167:Middlewares/Third_Party/FreeRTOS/portable/MemMang/heap_4.c ****             else
 168:Middlewares/Third_Party/FreeRTOS/portable/MemMang/heap_4.c ****             {
 169:Middlewares/Third_Party/FreeRTOS/portable/MemMang/heap_4.c ****                 xWantedSize = 0;
 170:Middlewares/Third_Party/FreeRTOS/portable/MemMang/heap_4.c ****             }
 171:Middlewares/Third_Party/FreeRTOS/portable/MemMang/heap_4.c ****         }
 172:Middlewares/Third_Party/FreeRTOS/portable/MemMang/heap_4.c ****         else
 173:Middlewares/Third_Party/FreeRTOS/portable/MemMang/heap_4.c ****         {
 174:Middlewares/Third_Party/FreeRTOS/portable/MemMang/heap_4.c ****             mtCOVERAGE_TEST_MARKER();
 175:Middlewares/Third_Party/FreeRTOS/portable/MemMang/heap_4.c ****         }
 176:Middlewares/Third_Party/FreeRTOS/portable/MemMang/heap_4.c **** 
 177:Middlewares/Third_Party/FreeRTOS/portable/MemMang/heap_4.c ****         /* Check the block size we are trying to allocate is not so large that the
 178:Middlewares/Third_Party/FreeRTOS/portable/MemMang/heap_4.c ****          * top bit is set.  The top bit of the block size member of the BlockLink_t
 179:Middlewares/Third_Party/FreeRTOS/portable/MemMang/heap_4.c ****          * structure is used to determine who owns the block - the application or
 180:Middlewares/Third_Party/FreeRTOS/portable/MemMang/heap_4.c ****          * the kernel, so it must be free. */
 181:Middlewares/Third_Party/FreeRTOS/portable/MemMang/heap_4.c ****         if( heapBLOCK_SIZE_IS_VALID( xWantedSize ) != 0 )
 182:Middlewares/Third_Party/FreeRTOS/portable/MemMang/heap_4.c ****         {
 183:Middlewares/Third_Party/FreeRTOS/portable/MemMang/heap_4.c ****             if( ( xWantedSize > 0 ) && ( xWantedSize <= xFreeBytesRemaining ) )
 184:Middlewares/Third_Party/FreeRTOS/portable/MemMang/heap_4.c ****             {
 185:Middlewares/Third_Party/FreeRTOS/portable/MemMang/heap_4.c ****                 /* Traverse the list from the start (lowest address) block until
 186:Middlewares/Third_Party/FreeRTOS/portable/MemMang/heap_4.c ****                  * one of adequate size is found. */
 187:Middlewares/Third_Party/FreeRTOS/portable/MemMang/heap_4.c ****                 pxPreviousBlock = &xStart;
 188:Middlewares/Third_Party/FreeRTOS/portable/MemMang/heap_4.c ****                 pxBlock = xStart.pxNextFreeBlock;
 189:Middlewares/Third_Party/FreeRTOS/portable/MemMang/heap_4.c **** 
 190:Middlewares/Third_Party/FreeRTOS/portable/MemMang/heap_4.c ****                 while( ( pxBlock->xBlockSize < xWantedSize ) && ( pxBlock->pxNextFreeBlock != NULL 
 191:Middlewares/Third_Party/FreeRTOS/portable/MemMang/heap_4.c ****                 {
 192:Middlewares/Third_Party/FreeRTOS/portable/MemMang/heap_4.c ****                     pxPreviousBlock = pxBlock;
 193:Middlewares/Third_Party/FreeRTOS/portable/MemMang/heap_4.c ****                     pxBlock = pxBlock->pxNextFreeBlock;
 194:Middlewares/Third_Party/FreeRTOS/portable/MemMang/heap_4.c ****                 }
 195:Middlewares/Third_Party/FreeRTOS/portable/MemMang/heap_4.c **** 
 196:Middlewares/Third_Party/FreeRTOS/portable/MemMang/heap_4.c ****                 /* If the end marker was reached then a block of adequate size
 197:Middlewares/Third_Party/FreeRTOS/portable/MemMang/heap_4.c ****                  * was not found. */
 198:Middlewares/Third_Party/FreeRTOS/portable/MemMang/heap_4.c ****                 if( pxBlock != pxEnd )
 199:Middlewares/Third_Party/FreeRTOS/portable/MemMang/heap_4.c ****                 {
 200:Middlewares/Third_Party/FreeRTOS/portable/MemMang/heap_4.c ****                     /* Return the memory space pointed to - jumping over the
 201:Middlewares/Third_Party/FreeRTOS/portable/MemMang/heap_4.c ****                      * BlockLink_t structure at its start. */
 202:Middlewares/Third_Party/FreeRTOS/portable/MemMang/heap_4.c ****                     pvReturn = ( void * ) ( ( ( uint8_t * ) pxPreviousBlock->pxNextFreeBlock ) + xH
 203:Middlewares/Third_Party/FreeRTOS/portable/MemMang/heap_4.c **** 
ARM GAS  /tmp/cckNveCu.s 			page 5


 204:Middlewares/Third_Party/FreeRTOS/portable/MemMang/heap_4.c ****                     /* This block is being returned for use so must be taken out
 205:Middlewares/Third_Party/FreeRTOS/portable/MemMang/heap_4.c ****                      * of the list of free blocks. */
 206:Middlewares/Third_Party/FreeRTOS/portable/MemMang/heap_4.c ****                     pxPreviousBlock->pxNextFreeBlock = pxBlock->pxNextFreeBlock;
 207:Middlewares/Third_Party/FreeRTOS/portable/MemMang/heap_4.c **** 
 208:Middlewares/Third_Party/FreeRTOS/portable/MemMang/heap_4.c ****                     /* If the block is larger than required it can be split into
 209:Middlewares/Third_Party/FreeRTOS/portable/MemMang/heap_4.c ****                      * two. */
 210:Middlewares/Third_Party/FreeRTOS/portable/MemMang/heap_4.c ****                     if( ( pxBlock->xBlockSize - xWantedSize ) > heapMINIMUM_BLOCK_SIZE )
 211:Middlewares/Third_Party/FreeRTOS/portable/MemMang/heap_4.c ****                     {
 212:Middlewares/Third_Party/FreeRTOS/portable/MemMang/heap_4.c ****                         /* This block is to be split into two.  Create a new
 213:Middlewares/Third_Party/FreeRTOS/portable/MemMang/heap_4.c ****                          * block following the number of bytes requested. The void
 214:Middlewares/Third_Party/FreeRTOS/portable/MemMang/heap_4.c ****                          * cast is used to prevent byte alignment warnings from the
 215:Middlewares/Third_Party/FreeRTOS/portable/MemMang/heap_4.c ****                          * compiler. */
 216:Middlewares/Third_Party/FreeRTOS/portable/MemMang/heap_4.c ****                         pxNewBlockLink = ( void * ) ( ( ( uint8_t * ) pxBlock ) + xWantedSize );
 217:Middlewares/Third_Party/FreeRTOS/portable/MemMang/heap_4.c ****                         configASSERT( ( ( ( size_t ) pxNewBlockLink ) & portBYTE_ALIGNMENT_MASK ) =
 218:Middlewares/Third_Party/FreeRTOS/portable/MemMang/heap_4.c **** 
 219:Middlewares/Third_Party/FreeRTOS/portable/MemMang/heap_4.c ****                         /* Calculate the sizes of two blocks split from the
 220:Middlewares/Third_Party/FreeRTOS/portable/MemMang/heap_4.c ****                          * single block. */
 221:Middlewares/Third_Party/FreeRTOS/portable/MemMang/heap_4.c ****                         pxNewBlockLink->xBlockSize = pxBlock->xBlockSize - xWantedSize;
 222:Middlewares/Third_Party/FreeRTOS/portable/MemMang/heap_4.c ****                         pxBlock->xBlockSize = xWantedSize;
 223:Middlewares/Third_Party/FreeRTOS/portable/MemMang/heap_4.c **** 
 224:Middlewares/Third_Party/FreeRTOS/portable/MemMang/heap_4.c ****                         /* Insert the new block into the list of free blocks. */
 225:Middlewares/Third_Party/FreeRTOS/portable/MemMang/heap_4.c ****                         prvInsertBlockIntoFreeList( pxNewBlockLink );
 226:Middlewares/Third_Party/FreeRTOS/portable/MemMang/heap_4.c ****                     }
 227:Middlewares/Third_Party/FreeRTOS/portable/MemMang/heap_4.c ****                     else
 228:Middlewares/Third_Party/FreeRTOS/portable/MemMang/heap_4.c ****                     {
 229:Middlewares/Third_Party/FreeRTOS/portable/MemMang/heap_4.c ****                         mtCOVERAGE_TEST_MARKER();
 230:Middlewares/Third_Party/FreeRTOS/portable/MemMang/heap_4.c ****                     }
 231:Middlewares/Third_Party/FreeRTOS/portable/MemMang/heap_4.c **** 
 232:Middlewares/Third_Party/FreeRTOS/portable/MemMang/heap_4.c ****                     xFreeBytesRemaining -= pxBlock->xBlockSize;
 233:Middlewares/Third_Party/FreeRTOS/portable/MemMang/heap_4.c **** 
 234:Middlewares/Third_Party/FreeRTOS/portable/MemMang/heap_4.c ****                     if( xFreeBytesRemaining < xMinimumEverFreeBytesRemaining )
 235:Middlewares/Third_Party/FreeRTOS/portable/MemMang/heap_4.c ****                     {
 236:Middlewares/Third_Party/FreeRTOS/portable/MemMang/heap_4.c ****                         xMinimumEverFreeBytesRemaining = xFreeBytesRemaining;
 237:Middlewares/Third_Party/FreeRTOS/portable/MemMang/heap_4.c ****                     }
 238:Middlewares/Third_Party/FreeRTOS/portable/MemMang/heap_4.c ****                     else
 239:Middlewares/Third_Party/FreeRTOS/portable/MemMang/heap_4.c ****                     {
 240:Middlewares/Third_Party/FreeRTOS/portable/MemMang/heap_4.c ****                         mtCOVERAGE_TEST_MARKER();
 241:Middlewares/Third_Party/FreeRTOS/portable/MemMang/heap_4.c ****                     }
 242:Middlewares/Third_Party/FreeRTOS/portable/MemMang/heap_4.c **** 
 243:Middlewares/Third_Party/FreeRTOS/portable/MemMang/heap_4.c ****                     /* The block is being returned - it is allocated and owned
 244:Middlewares/Third_Party/FreeRTOS/portable/MemMang/heap_4.c ****                      * by the application and has no "next" block. */
 245:Middlewares/Third_Party/FreeRTOS/portable/MemMang/heap_4.c ****                     heapALLOCATE_BLOCK( pxBlock );
 246:Middlewares/Third_Party/FreeRTOS/portable/MemMang/heap_4.c ****                     pxBlock->pxNextFreeBlock = NULL;
 247:Middlewares/Third_Party/FreeRTOS/portable/MemMang/heap_4.c ****                     xNumberOfSuccessfulAllocations++;
 248:Middlewares/Third_Party/FreeRTOS/portable/MemMang/heap_4.c ****                 }
 249:Middlewares/Third_Party/FreeRTOS/portable/MemMang/heap_4.c ****                 else
 250:Middlewares/Third_Party/FreeRTOS/portable/MemMang/heap_4.c ****                 {
 251:Middlewares/Third_Party/FreeRTOS/portable/MemMang/heap_4.c ****                     mtCOVERAGE_TEST_MARKER();
 252:Middlewares/Third_Party/FreeRTOS/portable/MemMang/heap_4.c ****                 }
 253:Middlewares/Third_Party/FreeRTOS/portable/MemMang/heap_4.c ****             }
 254:Middlewares/Third_Party/FreeRTOS/portable/MemMang/heap_4.c ****             else
 255:Middlewares/Third_Party/FreeRTOS/portable/MemMang/heap_4.c ****             {
 256:Middlewares/Third_Party/FreeRTOS/portable/MemMang/heap_4.c ****                 mtCOVERAGE_TEST_MARKER();
 257:Middlewares/Third_Party/FreeRTOS/portable/MemMang/heap_4.c ****             }
 258:Middlewares/Third_Party/FreeRTOS/portable/MemMang/heap_4.c ****         }
 259:Middlewares/Third_Party/FreeRTOS/portable/MemMang/heap_4.c ****         else
 260:Middlewares/Third_Party/FreeRTOS/portable/MemMang/heap_4.c ****         {
ARM GAS  /tmp/cckNveCu.s 			page 6


 261:Middlewares/Third_Party/FreeRTOS/portable/MemMang/heap_4.c ****             mtCOVERAGE_TEST_MARKER();
 262:Middlewares/Third_Party/FreeRTOS/portable/MemMang/heap_4.c ****         }
 263:Middlewares/Third_Party/FreeRTOS/portable/MemMang/heap_4.c **** 
 264:Middlewares/Third_Party/FreeRTOS/portable/MemMang/heap_4.c ****         traceMALLOC( pvReturn, xWantedSize );
 265:Middlewares/Third_Party/FreeRTOS/portable/MemMang/heap_4.c ****     }
 266:Middlewares/Third_Party/FreeRTOS/portable/MemMang/heap_4.c ****     ( void ) xTaskResumeAll();
 267:Middlewares/Third_Party/FreeRTOS/portable/MemMang/heap_4.c **** 
 268:Middlewares/Third_Party/FreeRTOS/portable/MemMang/heap_4.c ****     #if ( configUSE_MALLOC_FAILED_HOOK == 1 )
 269:Middlewares/Third_Party/FreeRTOS/portable/MemMang/heap_4.c ****     {
 270:Middlewares/Third_Party/FreeRTOS/portable/MemMang/heap_4.c ****         if( pvReturn == NULL )
 271:Middlewares/Third_Party/FreeRTOS/portable/MemMang/heap_4.c ****         {
 272:Middlewares/Third_Party/FreeRTOS/portable/MemMang/heap_4.c ****             vApplicationMallocFailedHook();
 273:Middlewares/Third_Party/FreeRTOS/portable/MemMang/heap_4.c ****         }
 274:Middlewares/Third_Party/FreeRTOS/portable/MemMang/heap_4.c ****         else
 275:Middlewares/Third_Party/FreeRTOS/portable/MemMang/heap_4.c ****         {
 276:Middlewares/Third_Party/FreeRTOS/portable/MemMang/heap_4.c ****             mtCOVERAGE_TEST_MARKER();
 277:Middlewares/Third_Party/FreeRTOS/portable/MemMang/heap_4.c ****         }
 278:Middlewares/Third_Party/FreeRTOS/portable/MemMang/heap_4.c ****     }
 279:Middlewares/Third_Party/FreeRTOS/portable/MemMang/heap_4.c ****     #endif /* if ( configUSE_MALLOC_FAILED_HOOK == 1 ) */
 280:Middlewares/Third_Party/FreeRTOS/portable/MemMang/heap_4.c **** 
 281:Middlewares/Third_Party/FreeRTOS/portable/MemMang/heap_4.c ****     configASSERT( ( ( ( size_t ) pvReturn ) & ( size_t ) portBYTE_ALIGNMENT_MASK ) == 0 );
 282:Middlewares/Third_Party/FreeRTOS/portable/MemMang/heap_4.c ****     return pvReturn;
 283:Middlewares/Third_Party/FreeRTOS/portable/MemMang/heap_4.c **** }
 284:Middlewares/Third_Party/FreeRTOS/portable/MemMang/heap_4.c **** /*-----------------------------------------------------------*/
 285:Middlewares/Third_Party/FreeRTOS/portable/MemMang/heap_4.c **** 
 286:Middlewares/Third_Party/FreeRTOS/portable/MemMang/heap_4.c **** void vPortFree( void * pv )
 287:Middlewares/Third_Party/FreeRTOS/portable/MemMang/heap_4.c **** {
 288:Middlewares/Third_Party/FreeRTOS/portable/MemMang/heap_4.c ****     uint8_t * puc = ( uint8_t * ) pv;
 289:Middlewares/Third_Party/FreeRTOS/portable/MemMang/heap_4.c ****     BlockLink_t * pxLink;
 290:Middlewares/Third_Party/FreeRTOS/portable/MemMang/heap_4.c **** 
 291:Middlewares/Third_Party/FreeRTOS/portable/MemMang/heap_4.c ****     if( pv != NULL )
 292:Middlewares/Third_Party/FreeRTOS/portable/MemMang/heap_4.c ****     {
 293:Middlewares/Third_Party/FreeRTOS/portable/MemMang/heap_4.c ****         /* The memory being freed will have an BlockLink_t structure immediately
 294:Middlewares/Third_Party/FreeRTOS/portable/MemMang/heap_4.c ****          * before it. */
 295:Middlewares/Third_Party/FreeRTOS/portable/MemMang/heap_4.c ****         puc -= xHeapStructSize;
 296:Middlewares/Third_Party/FreeRTOS/portable/MemMang/heap_4.c **** 
 297:Middlewares/Third_Party/FreeRTOS/portable/MemMang/heap_4.c ****         /* This casting is to keep the compiler from issuing warnings. */
 298:Middlewares/Third_Party/FreeRTOS/portable/MemMang/heap_4.c ****         pxLink = ( void * ) puc;
 299:Middlewares/Third_Party/FreeRTOS/portable/MemMang/heap_4.c **** 
 300:Middlewares/Third_Party/FreeRTOS/portable/MemMang/heap_4.c ****         configASSERT( heapBLOCK_IS_ALLOCATED( pxLink ) != 0 );
 301:Middlewares/Third_Party/FreeRTOS/portable/MemMang/heap_4.c ****         configASSERT( pxLink->pxNextFreeBlock == NULL );
 302:Middlewares/Third_Party/FreeRTOS/portable/MemMang/heap_4.c **** 
 303:Middlewares/Third_Party/FreeRTOS/portable/MemMang/heap_4.c ****         if( heapBLOCK_IS_ALLOCATED( pxLink ) != 0 )
 304:Middlewares/Third_Party/FreeRTOS/portable/MemMang/heap_4.c ****         {
 305:Middlewares/Third_Party/FreeRTOS/portable/MemMang/heap_4.c ****             if( pxLink->pxNextFreeBlock == NULL )
 306:Middlewares/Third_Party/FreeRTOS/portable/MemMang/heap_4.c ****             {
 307:Middlewares/Third_Party/FreeRTOS/portable/MemMang/heap_4.c ****                 /* The block is being returned to the heap - it is no longer
 308:Middlewares/Third_Party/FreeRTOS/portable/MemMang/heap_4.c ****                  * allocated. */
 309:Middlewares/Third_Party/FreeRTOS/portable/MemMang/heap_4.c ****                 heapFREE_BLOCK( pxLink );
 310:Middlewares/Third_Party/FreeRTOS/portable/MemMang/heap_4.c ****                 #if ( configHEAP_CLEAR_MEMORY_ON_FREE == 1 )
 311:Middlewares/Third_Party/FreeRTOS/portable/MemMang/heap_4.c ****                 {
 312:Middlewares/Third_Party/FreeRTOS/portable/MemMang/heap_4.c ****                     ( void ) memset( puc + xHeapStructSize, 0, pxLink->xBlockSize - xHeapStructSize
 313:Middlewares/Third_Party/FreeRTOS/portable/MemMang/heap_4.c ****                 }
 314:Middlewares/Third_Party/FreeRTOS/portable/MemMang/heap_4.c ****                 #endif
 315:Middlewares/Third_Party/FreeRTOS/portable/MemMang/heap_4.c **** 
 316:Middlewares/Third_Party/FreeRTOS/portable/MemMang/heap_4.c ****                 vTaskSuspendAll();
 317:Middlewares/Third_Party/FreeRTOS/portable/MemMang/heap_4.c ****                 {
ARM GAS  /tmp/cckNveCu.s 			page 7


 318:Middlewares/Third_Party/FreeRTOS/portable/MemMang/heap_4.c ****                     /* Add this block to the list of free blocks. */
 319:Middlewares/Third_Party/FreeRTOS/portable/MemMang/heap_4.c ****                     xFreeBytesRemaining += pxLink->xBlockSize;
 320:Middlewares/Third_Party/FreeRTOS/portable/MemMang/heap_4.c ****                     traceFREE( pv, pxLink->xBlockSize );
 321:Middlewares/Third_Party/FreeRTOS/portable/MemMang/heap_4.c ****                     prvInsertBlockIntoFreeList( ( ( BlockLink_t * ) pxLink ) );
 322:Middlewares/Third_Party/FreeRTOS/portable/MemMang/heap_4.c ****                     xNumberOfSuccessfulFrees++;
 323:Middlewares/Third_Party/FreeRTOS/portable/MemMang/heap_4.c ****                 }
 324:Middlewares/Third_Party/FreeRTOS/portable/MemMang/heap_4.c ****                 ( void ) xTaskResumeAll();
 325:Middlewares/Third_Party/FreeRTOS/portable/MemMang/heap_4.c ****             }
 326:Middlewares/Third_Party/FreeRTOS/portable/MemMang/heap_4.c ****             else
 327:Middlewares/Third_Party/FreeRTOS/portable/MemMang/heap_4.c ****             {
 328:Middlewares/Third_Party/FreeRTOS/portable/MemMang/heap_4.c ****                 mtCOVERAGE_TEST_MARKER();
 329:Middlewares/Third_Party/FreeRTOS/portable/MemMang/heap_4.c ****             }
 330:Middlewares/Third_Party/FreeRTOS/portable/MemMang/heap_4.c ****         }
 331:Middlewares/Third_Party/FreeRTOS/portable/MemMang/heap_4.c ****         else
 332:Middlewares/Third_Party/FreeRTOS/portable/MemMang/heap_4.c ****         {
 333:Middlewares/Third_Party/FreeRTOS/portable/MemMang/heap_4.c ****             mtCOVERAGE_TEST_MARKER();
 334:Middlewares/Third_Party/FreeRTOS/portable/MemMang/heap_4.c ****         }
 335:Middlewares/Third_Party/FreeRTOS/portable/MemMang/heap_4.c ****     }
 336:Middlewares/Third_Party/FreeRTOS/portable/MemMang/heap_4.c **** }
 337:Middlewares/Third_Party/FreeRTOS/portable/MemMang/heap_4.c **** /*-----------------------------------------------------------*/
 338:Middlewares/Third_Party/FreeRTOS/portable/MemMang/heap_4.c **** 
 339:Middlewares/Third_Party/FreeRTOS/portable/MemMang/heap_4.c **** size_t xPortGetFreeHeapSize( void )
 340:Middlewares/Third_Party/FreeRTOS/portable/MemMang/heap_4.c **** {
 341:Middlewares/Third_Party/FreeRTOS/portable/MemMang/heap_4.c ****     return xFreeBytesRemaining;
 342:Middlewares/Third_Party/FreeRTOS/portable/MemMang/heap_4.c **** }
 343:Middlewares/Third_Party/FreeRTOS/portable/MemMang/heap_4.c **** /*-----------------------------------------------------------*/
 344:Middlewares/Third_Party/FreeRTOS/portable/MemMang/heap_4.c **** 
 345:Middlewares/Third_Party/FreeRTOS/portable/MemMang/heap_4.c **** size_t xPortGetMinimumEverFreeHeapSize( void )
 346:Middlewares/Third_Party/FreeRTOS/portable/MemMang/heap_4.c **** {
 347:Middlewares/Third_Party/FreeRTOS/portable/MemMang/heap_4.c ****     return xMinimumEverFreeBytesRemaining;
 348:Middlewares/Third_Party/FreeRTOS/portable/MemMang/heap_4.c **** }
 349:Middlewares/Third_Party/FreeRTOS/portable/MemMang/heap_4.c **** /*-----------------------------------------------------------*/
 350:Middlewares/Third_Party/FreeRTOS/portable/MemMang/heap_4.c **** 
 351:Middlewares/Third_Party/FreeRTOS/portable/MemMang/heap_4.c **** void vPortInitialiseBlocks( void )
 352:Middlewares/Third_Party/FreeRTOS/portable/MemMang/heap_4.c **** {
 353:Middlewares/Third_Party/FreeRTOS/portable/MemMang/heap_4.c ****     /* This just exists to keep the linker quiet. */
 354:Middlewares/Third_Party/FreeRTOS/portable/MemMang/heap_4.c **** }
 355:Middlewares/Third_Party/FreeRTOS/portable/MemMang/heap_4.c **** /*-----------------------------------------------------------*/
 356:Middlewares/Third_Party/FreeRTOS/portable/MemMang/heap_4.c **** 
 357:Middlewares/Third_Party/FreeRTOS/portable/MemMang/heap_4.c **** void * pvPortCalloc( size_t xNum,
 358:Middlewares/Third_Party/FreeRTOS/portable/MemMang/heap_4.c ****                      size_t xSize )
 359:Middlewares/Third_Party/FreeRTOS/portable/MemMang/heap_4.c **** {
 360:Middlewares/Third_Party/FreeRTOS/portable/MemMang/heap_4.c ****     void * pv = NULL;
 361:Middlewares/Third_Party/FreeRTOS/portable/MemMang/heap_4.c **** 
 362:Middlewares/Third_Party/FreeRTOS/portable/MemMang/heap_4.c ****     if( heapMULTIPLY_WILL_OVERFLOW( xNum, xSize ) == 0 )
 363:Middlewares/Third_Party/FreeRTOS/portable/MemMang/heap_4.c ****     {
 364:Middlewares/Third_Party/FreeRTOS/portable/MemMang/heap_4.c ****         pv = pvPortMalloc( xNum * xSize );
 365:Middlewares/Third_Party/FreeRTOS/portable/MemMang/heap_4.c **** 
 366:Middlewares/Third_Party/FreeRTOS/portable/MemMang/heap_4.c ****         if( pv != NULL )
 367:Middlewares/Third_Party/FreeRTOS/portable/MemMang/heap_4.c ****         {
 368:Middlewares/Third_Party/FreeRTOS/portable/MemMang/heap_4.c ****             ( void ) memset( pv, 0, xNum * xSize );
 369:Middlewares/Third_Party/FreeRTOS/portable/MemMang/heap_4.c ****         }
 370:Middlewares/Third_Party/FreeRTOS/portable/MemMang/heap_4.c ****     }
 371:Middlewares/Third_Party/FreeRTOS/portable/MemMang/heap_4.c **** 
 372:Middlewares/Third_Party/FreeRTOS/portable/MemMang/heap_4.c ****     return pv;
 373:Middlewares/Third_Party/FreeRTOS/portable/MemMang/heap_4.c **** }
 374:Middlewares/Third_Party/FreeRTOS/portable/MemMang/heap_4.c **** /*-----------------------------------------------------------*/
ARM GAS  /tmp/cckNveCu.s 			page 8


 375:Middlewares/Third_Party/FreeRTOS/portable/MemMang/heap_4.c **** 
 376:Middlewares/Third_Party/FreeRTOS/portable/MemMang/heap_4.c **** static void prvHeapInit( void ) /* PRIVILEGED_FUNCTION */
 377:Middlewares/Third_Party/FreeRTOS/portable/MemMang/heap_4.c **** {
  27              		.loc 1 377 1 view -0
  28              		.cfi_startproc
  29              		@ args = 0, pretend = 0, frame = 0
  30              		@ frame_needed = 0, uses_anonymous_args = 0
  31              		@ link register save eliminated.
 378:Middlewares/Third_Party/FreeRTOS/portable/MemMang/heap_4.c ****     BlockLink_t * pxFirstFreeBlock;
  32              		.loc 1 378 5 view .LVU1
 379:Middlewares/Third_Party/FreeRTOS/portable/MemMang/heap_4.c ****     uint8_t * pucAlignedHeap;
  33              		.loc 1 379 5 view .LVU2
 380:Middlewares/Third_Party/FreeRTOS/portable/MemMang/heap_4.c ****     portPOINTER_SIZE_TYPE uxAddress;
  34              		.loc 1 380 5 view .LVU3
 381:Middlewares/Third_Party/FreeRTOS/portable/MemMang/heap_4.c ****     size_t xTotalHeapSize = configTOTAL_HEAP_SIZE;
  35              		.loc 1 381 5 view .LVU4
  36              	.LVL0:
 382:Middlewares/Third_Party/FreeRTOS/portable/MemMang/heap_4.c **** 
 383:Middlewares/Third_Party/FreeRTOS/portable/MemMang/heap_4.c ****     /* Ensure the heap starts on a correctly aligned boundary. */
 384:Middlewares/Third_Party/FreeRTOS/portable/MemMang/heap_4.c ****     uxAddress = ( portPOINTER_SIZE_TYPE ) ucHeap;
  37              		.loc 1 384 5 view .LVU5
  38              		.loc 1 384 15 is_stmt 0 view .LVU6
  39 0000 104A     		ldr	r2, .L4
  40              	.LVL1:
 385:Middlewares/Third_Party/FreeRTOS/portable/MemMang/heap_4.c **** 
 386:Middlewares/Third_Party/FreeRTOS/portable/MemMang/heap_4.c ****     if( ( uxAddress & portBYTE_ALIGNMENT_MASK ) != 0 )
  41              		.loc 1 386 5 is_stmt 1 view .LVU7
  42              		.loc 1 386 7 is_stmt 0 view .LVU8
  43 0002 12F0070F 		tst	r2, #7
  44 0006 1AD0     		beq	.L3
 387:Middlewares/Third_Party/FreeRTOS/portable/MemMang/heap_4.c ****     {
 388:Middlewares/Third_Party/FreeRTOS/portable/MemMang/heap_4.c ****         uxAddress += ( portBYTE_ALIGNMENT - 1 );
  45              		.loc 1 388 9 is_stmt 1 view .LVU9
  46              		.loc 1 388 19 is_stmt 0 view .LVU10
  47 0008 D11D     		adds	r1, r2, #7
  48              	.LVL2:
 389:Middlewares/Third_Party/FreeRTOS/portable/MemMang/heap_4.c ****         uxAddress &= ~( ( portPOINTER_SIZE_TYPE ) portBYTE_ALIGNMENT_MASK );
  49              		.loc 1 389 9 is_stmt 1 view .LVU11
  50              		.loc 1 389 19 is_stmt 0 view .LVU12
  51 000a 21F00701 		bic	r1, r1, #7
  52              	.LVL3:
 390:Middlewares/Third_Party/FreeRTOS/portable/MemMang/heap_4.c ****         xTotalHeapSize -= uxAddress - ( portPOINTER_SIZE_TYPE ) ucHeap;
  53              		.loc 1 390 9 is_stmt 1 view .LVU13
  54              		.loc 1 390 24 is_stmt 0 view .LVU14
  55 000e C1F59633 		rsb	r3, r1, #76800
  56 0012 1344     		add	r3, r3, r2
  57              	.LVL4:
 389:Middlewares/Third_Party/FreeRTOS/portable/MemMang/heap_4.c ****         uxAddress &= ~( ( portPOINTER_SIZE_TYPE ) portBYTE_ALIGNMENT_MASK );
  58              		.loc 1 389 19 view .LVU15
  59 0014 0A46     		mov	r2, r1
  60              	.LVL5:
  61              	.L2:
 391:Middlewares/Third_Party/FreeRTOS/portable/MemMang/heap_4.c ****     }
 392:Middlewares/Third_Party/FreeRTOS/portable/MemMang/heap_4.c **** 
 393:Middlewares/Third_Party/FreeRTOS/portable/MemMang/heap_4.c ****     pucAlignedHeap = ( uint8_t * ) uxAddress;
  62              		.loc 1 393 5 is_stmt 1 view .LVU16
 394:Middlewares/Third_Party/FreeRTOS/portable/MemMang/heap_4.c **** 
ARM GAS  /tmp/cckNveCu.s 			page 9


 395:Middlewares/Third_Party/FreeRTOS/portable/MemMang/heap_4.c ****     /* xStart is used to hold a pointer to the first item in the list of free
 396:Middlewares/Third_Party/FreeRTOS/portable/MemMang/heap_4.c ****      * blocks.  The void cast is used to prevent compiler warnings. */
 397:Middlewares/Third_Party/FreeRTOS/portable/MemMang/heap_4.c ****     xStart.pxNextFreeBlock = ( void * ) pucAlignedHeap;
  63              		.loc 1 397 5 view .LVU17
  64              		.loc 1 397 28 is_stmt 0 view .LVU18
  65 0016 0C48     		ldr	r0, .L4+4
  66 0018 0260     		str	r2, [r0]
 398:Middlewares/Third_Party/FreeRTOS/portable/MemMang/heap_4.c ****     xStart.xBlockSize = ( size_t ) 0;
  67              		.loc 1 398 5 is_stmt 1 view .LVU19
  68              		.loc 1 398 23 is_stmt 0 view .LVU20
  69 001a 0021     		movs	r1, #0
  70 001c 4160     		str	r1, [r0, #4]
 399:Middlewares/Third_Party/FreeRTOS/portable/MemMang/heap_4.c **** 
 400:Middlewares/Third_Party/FreeRTOS/portable/MemMang/heap_4.c ****     /* pxEnd is used to mark the end of the list of free blocks and is inserted
 401:Middlewares/Third_Party/FreeRTOS/portable/MemMang/heap_4.c ****      * at the end of the heap space. */
 402:Middlewares/Third_Party/FreeRTOS/portable/MemMang/heap_4.c ****     uxAddress = ( ( portPOINTER_SIZE_TYPE ) pucAlignedHeap ) + xTotalHeapSize;
  71              		.loc 1 402 5 is_stmt 1 view .LVU21
  72              		.loc 1 402 15 is_stmt 0 view .LVU22
  73 001e 1344     		add	r3, r3, r2
  74              	.LVL6:
 403:Middlewares/Third_Party/FreeRTOS/portable/MemMang/heap_4.c ****     uxAddress -= xHeapStructSize;
  75              		.loc 1 403 5 is_stmt 1 view .LVU23
  76              		.loc 1 403 15 is_stmt 0 view .LVU24
  77 0020 083B     		subs	r3, r3, #8
  78              	.LVL7:
 404:Middlewares/Third_Party/FreeRTOS/portable/MemMang/heap_4.c ****     uxAddress &= ~( ( portPOINTER_SIZE_TYPE ) portBYTE_ALIGNMENT_MASK );
  79              		.loc 1 404 5 is_stmt 1 view .LVU25
  80              		.loc 1 404 15 is_stmt 0 view .LVU26
  81 0022 23F00703 		bic	r3, r3, #7
  82              	.LVL8:
 405:Middlewares/Third_Party/FreeRTOS/portable/MemMang/heap_4.c ****     pxEnd = ( BlockLink_t * ) uxAddress;
  83              		.loc 1 405 5 is_stmt 1 view .LVU27
  84              		.loc 1 405 11 is_stmt 0 view .LVU28
  85 0026 0948     		ldr	r0, .L4+8
  86 0028 0360     		str	r3, [r0]
 406:Middlewares/Third_Party/FreeRTOS/portable/MemMang/heap_4.c ****     pxEnd->xBlockSize = 0;
  87              		.loc 1 406 5 is_stmt 1 view .LVU29
  88              		.loc 1 406 23 is_stmt 0 view .LVU30
  89 002a 5960     		str	r1, [r3, #4]
 407:Middlewares/Third_Party/FreeRTOS/portable/MemMang/heap_4.c ****     pxEnd->pxNextFreeBlock = NULL;
  90              		.loc 1 407 5 is_stmt 1 view .LVU31
  91              		.loc 1 407 28 is_stmt 0 view .LVU32
  92 002c 1960     		str	r1, [r3]
 408:Middlewares/Third_Party/FreeRTOS/portable/MemMang/heap_4.c **** 
 409:Middlewares/Third_Party/FreeRTOS/portable/MemMang/heap_4.c ****     /* To start with there is a single free block that is sized to take up the
 410:Middlewares/Third_Party/FreeRTOS/portable/MemMang/heap_4.c ****      * entire heap space, minus the space taken by pxEnd. */
 411:Middlewares/Third_Party/FreeRTOS/portable/MemMang/heap_4.c ****     pxFirstFreeBlock = ( BlockLink_t * ) pucAlignedHeap;
  93              		.loc 1 411 5 is_stmt 1 view .LVU33
  94              	.LVL9:
 412:Middlewares/Third_Party/FreeRTOS/portable/MemMang/heap_4.c ****     pxFirstFreeBlock->xBlockSize = ( size_t ) ( uxAddress - ( portPOINTER_SIZE_TYPE ) pxFirstFreeBl
  95              		.loc 1 412 5 view .LVU34
  96              		.loc 1 412 59 is_stmt 0 view .LVU35
  97 002e 991A     		subs	r1, r3, r2
  98              		.loc 1 412 34 view .LVU36
  99 0030 5160     		str	r1, [r2, #4]
 413:Middlewares/Third_Party/FreeRTOS/portable/MemMang/heap_4.c ****     pxFirstFreeBlock->pxNextFreeBlock = pxEnd;
 100              		.loc 1 413 5 is_stmt 1 view .LVU37
ARM GAS  /tmp/cckNveCu.s 			page 10


 101              		.loc 1 413 39 is_stmt 0 view .LVU38
 102 0032 1360     		str	r3, [r2]
 414:Middlewares/Third_Party/FreeRTOS/portable/MemMang/heap_4.c **** 
 415:Middlewares/Third_Party/FreeRTOS/portable/MemMang/heap_4.c ****     /* Only one block exists - and it covers the entire usable heap space. */
 416:Middlewares/Third_Party/FreeRTOS/portable/MemMang/heap_4.c ****     xMinimumEverFreeBytesRemaining = pxFirstFreeBlock->xBlockSize;
 103              		.loc 1 416 5 is_stmt 1 view .LVU39
 104              		.loc 1 416 36 is_stmt 0 view .LVU40
 105 0034 064B     		ldr	r3, .L4+12
 106              	.LVL10:
 107              		.loc 1 416 36 view .LVU41
 108 0036 1960     		str	r1, [r3]
 417:Middlewares/Third_Party/FreeRTOS/portable/MemMang/heap_4.c ****     xFreeBytesRemaining = pxFirstFreeBlock->xBlockSize;
 109              		.loc 1 417 5 is_stmt 1 view .LVU42
 110              		.loc 1 417 25 is_stmt 0 view .LVU43
 111 0038 064B     		ldr	r3, .L4+16
 112 003a 1960     		str	r1, [r3]
 418:Middlewares/Third_Party/FreeRTOS/portable/MemMang/heap_4.c **** }
 113              		.loc 1 418 1 view .LVU44
 114 003c 7047     		bx	lr
 115              	.LVL11:
 116              	.L3:
 381:Middlewares/Third_Party/FreeRTOS/portable/MemMang/heap_4.c **** 
 117              		.loc 1 381 12 view .LVU45
 118 003e 4FF49633 		mov	r3, #76800
 119 0042 E8E7     		b	.L2
 120              	.L5:
 121              		.align	2
 122              	.L4:
 123 0044 00000000 		.word	ucHeap
 124 0048 00000000 		.word	.LANCHOR0
 125 004c 00000000 		.word	.LANCHOR1
 126 0050 00000000 		.word	.LANCHOR2
 127 0054 00000000 		.word	.LANCHOR3
 128              		.cfi_endproc
 129              	.LFE10:
 131              		.section	.text.prvInsertBlockIntoFreeList,"ax",%progbits
 132              		.align	1
 133              		.syntax unified
 134              		.thumb
 135              		.thumb_func
 137              	prvInsertBlockIntoFreeList:
 138              	.LVL12:
 139              	.LFB11:
 419:Middlewares/Third_Party/FreeRTOS/portable/MemMang/heap_4.c **** /*-----------------------------------------------------------*/
 420:Middlewares/Third_Party/FreeRTOS/portable/MemMang/heap_4.c **** 
 421:Middlewares/Third_Party/FreeRTOS/portable/MemMang/heap_4.c **** static void prvInsertBlockIntoFreeList( BlockLink_t * pxBlockToInsert ) /* PRIVILEGED_FUNCTION */
 422:Middlewares/Third_Party/FreeRTOS/portable/MemMang/heap_4.c **** {
 140              		.loc 1 422 1 is_stmt 1 view -0
 141              		.cfi_startproc
 142              		@ args = 0, pretend = 0, frame = 0
 143              		@ frame_needed = 0, uses_anonymous_args = 0
 144              		@ link register save eliminated.
 423:Middlewares/Third_Party/FreeRTOS/portable/MemMang/heap_4.c ****     BlockLink_t * pxIterator;
 145              		.loc 1 423 5 view .LVU47
 424:Middlewares/Third_Party/FreeRTOS/portable/MemMang/heap_4.c ****     uint8_t * puc;
 146              		.loc 1 424 5 view .LVU48
 425:Middlewares/Third_Party/FreeRTOS/portable/MemMang/heap_4.c **** 
ARM GAS  /tmp/cckNveCu.s 			page 11


 426:Middlewares/Third_Party/FreeRTOS/portable/MemMang/heap_4.c ****     /* Iterate through the list until a block is found that has a higher address
 427:Middlewares/Third_Party/FreeRTOS/portable/MemMang/heap_4.c ****      * than the block being inserted. */
 428:Middlewares/Third_Party/FreeRTOS/portable/MemMang/heap_4.c ****     for( pxIterator = &xStart; pxIterator->pxNextFreeBlock < pxBlockToInsert; pxIterator = pxIterat
 147              		.loc 1 428 5 view .LVU49
 148              		.loc 1 428 21 is_stmt 0 view .LVU50
 149 0000 164B     		ldr	r3, .L21
 150              	.LVL13:
 151              	.L7:
 152              		.loc 1 428 32 is_stmt 1 discriminator 1 view .LVU51
 153 0002 1A46     		mov	r2, r3
 154              		.loc 1 428 42 is_stmt 0 discriminator 1 view .LVU52
 155 0004 1B68     		ldr	r3, [r3]
 156              	.LVL14:
 157              		.loc 1 428 5 discriminator 1 view .LVU53
 158 0006 8342     		cmp	r3, r0
 159 0008 FBD3     		bcc	.L7
 429:Middlewares/Third_Party/FreeRTOS/portable/MemMang/heap_4.c ****     {
 430:Middlewares/Third_Party/FreeRTOS/portable/MemMang/heap_4.c ****         /* Nothing to do here, just iterate to the right position. */
 431:Middlewares/Third_Party/FreeRTOS/portable/MemMang/heap_4.c ****     }
 432:Middlewares/Third_Party/FreeRTOS/portable/MemMang/heap_4.c **** 
 433:Middlewares/Third_Party/FreeRTOS/portable/MemMang/heap_4.c ****     /* Do the block being inserted, and the block it is being inserted after
 434:Middlewares/Third_Party/FreeRTOS/portable/MemMang/heap_4.c ****      * make a contiguous block of memory? */
 435:Middlewares/Third_Party/FreeRTOS/portable/MemMang/heap_4.c ****     puc = ( uint8_t * ) pxIterator;
 160              		.loc 1 435 5 is_stmt 1 view .LVU54
 161              	.LVL15:
 436:Middlewares/Third_Party/FreeRTOS/portable/MemMang/heap_4.c **** 
 437:Middlewares/Third_Party/FreeRTOS/portable/MemMang/heap_4.c ****     if( ( puc + pxIterator->xBlockSize ) == ( uint8_t * ) pxBlockToInsert )
 162              		.loc 1 437 5 view .LVU55
 163              		.loc 1 437 27 is_stmt 0 view .LVU56
 164 000a 5168     		ldr	r1, [r2, #4]
 165              		.loc 1 437 15 view .LVU57
 166 000c 02EB010C 		add	ip, r2, r1
 167              		.loc 1 437 7 view .LVU58
 168 0010 8445     		cmp	ip, r0
 169 0012 09D0     		beq	.L19
 170              	.L8:
 438:Middlewares/Third_Party/FreeRTOS/portable/MemMang/heap_4.c ****     {
 439:Middlewares/Third_Party/FreeRTOS/portable/MemMang/heap_4.c ****         pxIterator->xBlockSize += pxBlockToInsert->xBlockSize;
 440:Middlewares/Third_Party/FreeRTOS/portable/MemMang/heap_4.c ****         pxBlockToInsert = pxIterator;
 441:Middlewares/Third_Party/FreeRTOS/portable/MemMang/heap_4.c ****     }
 442:Middlewares/Third_Party/FreeRTOS/portable/MemMang/heap_4.c ****     else
 443:Middlewares/Third_Party/FreeRTOS/portable/MemMang/heap_4.c ****     {
 444:Middlewares/Third_Party/FreeRTOS/portable/MemMang/heap_4.c ****         mtCOVERAGE_TEST_MARKER();
 171              		.loc 1 444 33 is_stmt 1 view .LVU59
 445:Middlewares/Third_Party/FreeRTOS/portable/MemMang/heap_4.c ****     }
 446:Middlewares/Third_Party/FreeRTOS/portable/MemMang/heap_4.c **** 
 447:Middlewares/Third_Party/FreeRTOS/portable/MemMang/heap_4.c ****     /* Do the block being inserted, and the block it is being inserted before
 448:Middlewares/Third_Party/FreeRTOS/portable/MemMang/heap_4.c ****      * make a contiguous block of memory? */
 449:Middlewares/Third_Party/FreeRTOS/portable/MemMang/heap_4.c ****     puc = ( uint8_t * ) pxBlockToInsert;
 172              		.loc 1 449 5 view .LVU60
 173              	.LVL16:
 450:Middlewares/Third_Party/FreeRTOS/portable/MemMang/heap_4.c **** 
 451:Middlewares/Third_Party/FreeRTOS/portable/MemMang/heap_4.c ****     if( ( puc + pxBlockToInsert->xBlockSize ) == ( uint8_t * ) pxIterator->pxNextFreeBlock )
 174              		.loc 1 451 5 view .LVU61
 175              		.loc 1 451 32 is_stmt 0 view .LVU62
 176 0014 4168     		ldr	r1, [r0, #4]
 177              		.loc 1 451 15 view .LVU63
ARM GAS  /tmp/cckNveCu.s 			page 12


 178 0016 00EB010C 		add	ip, r0, r1
 179              		.loc 1 451 7 view .LVU64
 180 001a 6345     		cmp	r3, ip
 181 001c 09D0     		beq	.L20
 452:Middlewares/Third_Party/FreeRTOS/portable/MemMang/heap_4.c ****     {
 453:Middlewares/Third_Party/FreeRTOS/portable/MemMang/heap_4.c ****         if( pxIterator->pxNextFreeBlock != pxEnd )
 454:Middlewares/Third_Party/FreeRTOS/portable/MemMang/heap_4.c ****         {
 455:Middlewares/Third_Party/FreeRTOS/portable/MemMang/heap_4.c ****             /* Form one big block from the two blocks. */
 456:Middlewares/Third_Party/FreeRTOS/portable/MemMang/heap_4.c ****             pxBlockToInsert->xBlockSize += pxIterator->pxNextFreeBlock->xBlockSize;
 457:Middlewares/Third_Party/FreeRTOS/portable/MemMang/heap_4.c ****             pxBlockToInsert->pxNextFreeBlock = pxIterator->pxNextFreeBlock->pxNextFreeBlock;
 458:Middlewares/Third_Party/FreeRTOS/portable/MemMang/heap_4.c ****         }
 459:Middlewares/Third_Party/FreeRTOS/portable/MemMang/heap_4.c ****         else
 460:Middlewares/Third_Party/FreeRTOS/portable/MemMang/heap_4.c ****         {
 461:Middlewares/Third_Party/FreeRTOS/portable/MemMang/heap_4.c ****             pxBlockToInsert->pxNextFreeBlock = pxEnd;
 462:Middlewares/Third_Party/FreeRTOS/portable/MemMang/heap_4.c ****         }
 463:Middlewares/Third_Party/FreeRTOS/portable/MemMang/heap_4.c ****     }
 464:Middlewares/Third_Party/FreeRTOS/portable/MemMang/heap_4.c ****     else
 465:Middlewares/Third_Party/FreeRTOS/portable/MemMang/heap_4.c ****     {
 466:Middlewares/Third_Party/FreeRTOS/portable/MemMang/heap_4.c ****         pxBlockToInsert->pxNextFreeBlock = pxIterator->pxNextFreeBlock;
 182              		.loc 1 466 9 is_stmt 1 view .LVU65
 183              		.loc 1 466 42 is_stmt 0 view .LVU66
 184 001e 0360     		str	r3, [r0]
 467:Middlewares/Third_Party/FreeRTOS/portable/MemMang/heap_4.c ****     }
 468:Middlewares/Third_Party/FreeRTOS/portable/MemMang/heap_4.c **** 
 469:Middlewares/Third_Party/FreeRTOS/portable/MemMang/heap_4.c ****     /* If the block being inserted plugged a gab, so was merged with the block
 470:Middlewares/Third_Party/FreeRTOS/portable/MemMang/heap_4.c ****      * before and the block after, then it's pxNextFreeBlock pointer will have
 471:Middlewares/Third_Party/FreeRTOS/portable/MemMang/heap_4.c ****      * already been set, and should not be set here as that would make it point
 472:Middlewares/Third_Party/FreeRTOS/portable/MemMang/heap_4.c ****      * to itself. */
 473:Middlewares/Third_Party/FreeRTOS/portable/MemMang/heap_4.c ****     if( pxIterator != pxBlockToInsert )
 185              		.loc 1 473 5 is_stmt 1 view .LVU67
 186              		.loc 1 473 7 is_stmt 0 view .LVU68
 187 0020 9042     		cmp	r0, r2
 188 0022 19D0     		beq	.L16
 474:Middlewares/Third_Party/FreeRTOS/portable/MemMang/heap_4.c ****     {
 475:Middlewares/Third_Party/FreeRTOS/portable/MemMang/heap_4.c ****         pxIterator->pxNextFreeBlock = pxBlockToInsert;
 189              		.loc 1 475 9 is_stmt 1 view .LVU69
 190              		.loc 1 475 37 is_stmt 0 view .LVU70
 191 0024 1060     		str	r0, [r2]
 476:Middlewares/Third_Party/FreeRTOS/portable/MemMang/heap_4.c ****     }
 477:Middlewares/Third_Party/FreeRTOS/portable/MemMang/heap_4.c ****     else
 478:Middlewares/Third_Party/FreeRTOS/portable/MemMang/heap_4.c ****     {
 479:Middlewares/Third_Party/FreeRTOS/portable/MemMang/heap_4.c ****         mtCOVERAGE_TEST_MARKER();
 192              		.loc 1 479 33 is_stmt 1 view .LVU71
 193 0026 7047     		bx	lr
 194              	.LVL17:
 195              	.L19:
 439:Middlewares/Third_Party/FreeRTOS/portable/MemMang/heap_4.c ****         pxBlockToInsert = pxIterator;
 196              		.loc 1 439 9 view .LVU72
 439:Middlewares/Third_Party/FreeRTOS/portable/MemMang/heap_4.c ****         pxBlockToInsert = pxIterator;
 197              		.loc 1 439 50 is_stmt 0 view .LVU73
 198 0028 4068     		ldr	r0, [r0, #4]
 199              	.LVL18:
 439:Middlewares/Third_Party/FreeRTOS/portable/MemMang/heap_4.c ****         pxBlockToInsert = pxIterator;
 200              		.loc 1 439 32 view .LVU74
 201 002a 0144     		add	r1, r1, r0
 202 002c 5160     		str	r1, [r2, #4]
 440:Middlewares/Third_Party/FreeRTOS/portable/MemMang/heap_4.c ****     }
ARM GAS  /tmp/cckNveCu.s 			page 13


 203              		.loc 1 440 9 is_stmt 1 view .LVU75
 204              	.LVL19:
 440:Middlewares/Third_Party/FreeRTOS/portable/MemMang/heap_4.c ****     }
 205              		.loc 1 440 25 is_stmt 0 view .LVU76
 206 002e 1046     		mov	r0, r2
 207 0030 F0E7     		b	.L8
 208              	.LVL20:
 209              	.L20:
 422:Middlewares/Third_Party/FreeRTOS/portable/MemMang/heap_4.c ****     BlockLink_t * pxIterator;
 210              		.loc 1 422 1 view .LVU77
 211 0032 10B4     		push	{r4}
 212              	.LCFI0:
 213              		.cfi_def_cfa_offset 4
 214              		.cfi_offset 4, -4
 453:Middlewares/Third_Party/FreeRTOS/portable/MemMang/heap_4.c ****         {
 215              		.loc 1 453 9 is_stmt 1 view .LVU78
 453:Middlewares/Third_Party/FreeRTOS/portable/MemMang/heap_4.c ****         {
 216              		.loc 1 453 41 is_stmt 0 view .LVU79
 217 0034 0A4C     		ldr	r4, .L21+4
 218 0036 2468     		ldr	r4, [r4]
 453:Middlewares/Third_Party/FreeRTOS/portable/MemMang/heap_4.c ****         {
 219              		.loc 1 453 11 view .LVU80
 220 0038 A342     		cmp	r3, r4
 221 003a 0BD0     		beq	.L10
 456:Middlewares/Third_Party/FreeRTOS/portable/MemMang/heap_4.c ****             pxBlockToInsert->pxNextFreeBlock = pxIterator->pxNextFreeBlock->pxNextFreeBlock;
 222              		.loc 1 456 13 is_stmt 1 view .LVU81
 456:Middlewares/Third_Party/FreeRTOS/portable/MemMang/heap_4.c ****             pxBlockToInsert->pxNextFreeBlock = pxIterator->pxNextFreeBlock->pxNextFreeBlock;
 223              		.loc 1 456 71 is_stmt 0 view .LVU82
 224 003c 5B68     		ldr	r3, [r3, #4]
 456:Middlewares/Third_Party/FreeRTOS/portable/MemMang/heap_4.c ****             pxBlockToInsert->pxNextFreeBlock = pxIterator->pxNextFreeBlock->pxNextFreeBlock;
 225              		.loc 1 456 41 view .LVU83
 226 003e 1944     		add	r1, r1, r3
 227 0040 4160     		str	r1, [r0, #4]
 457:Middlewares/Third_Party/FreeRTOS/portable/MemMang/heap_4.c ****         }
 228              		.loc 1 457 13 is_stmt 1 view .LVU84
 457:Middlewares/Third_Party/FreeRTOS/portable/MemMang/heap_4.c ****         }
 229              		.loc 1 457 58 is_stmt 0 view .LVU85
 230 0042 1368     		ldr	r3, [r2]
 457:Middlewares/Third_Party/FreeRTOS/portable/MemMang/heap_4.c ****         }
 231              		.loc 1 457 75 view .LVU86
 232 0044 1B68     		ldr	r3, [r3]
 457:Middlewares/Third_Party/FreeRTOS/portable/MemMang/heap_4.c ****         }
 233              		.loc 1 457 46 view .LVU87
 234 0046 0360     		str	r3, [r0]
 235              	.L11:
 473:Middlewares/Third_Party/FreeRTOS/portable/MemMang/heap_4.c ****     {
 236              		.loc 1 473 5 is_stmt 1 view .LVU88
 473:Middlewares/Third_Party/FreeRTOS/portable/MemMang/heap_4.c ****     {
 237              		.loc 1 473 7 is_stmt 0 view .LVU89
 238 0048 9042     		cmp	r0, r2
 239 004a 00D0     		beq	.L6
 475:Middlewares/Third_Party/FreeRTOS/portable/MemMang/heap_4.c ****     }
 240              		.loc 1 475 9 is_stmt 1 view .LVU90
 475:Middlewares/Third_Party/FreeRTOS/portable/MemMang/heap_4.c ****     }
 241              		.loc 1 475 37 is_stmt 0 view .LVU91
 242 004c 1060     		str	r0, [r2]
 243              		.loc 1 479 33 is_stmt 1 view .LVU92
ARM GAS  /tmp/cckNveCu.s 			page 14


 244              	.L6:
 480:Middlewares/Third_Party/FreeRTOS/portable/MemMang/heap_4.c ****     }
 481:Middlewares/Third_Party/FreeRTOS/portable/MemMang/heap_4.c **** }
 245              		.loc 1 481 1 is_stmt 0 view .LVU93
 246 004e 5DF8044B 		ldr	r4, [sp], #4
 247              	.LCFI1:
 248              		.cfi_remember_state
 249              		.cfi_restore 4
 250              		.cfi_def_cfa_offset 0
 251 0052 7047     		bx	lr
 252              	.L10:
 253              	.LCFI2:
 254              		.cfi_restore_state
 461:Middlewares/Third_Party/FreeRTOS/portable/MemMang/heap_4.c ****         }
 255              		.loc 1 461 13 is_stmt 1 view .LVU94
 461:Middlewares/Third_Party/FreeRTOS/portable/MemMang/heap_4.c ****         }
 256              		.loc 1 461 46 is_stmt 0 view .LVU95
 257 0054 0460     		str	r4, [r0]
 258 0056 F7E7     		b	.L11
 259              	.L16:
 260              	.LCFI3:
 261              		.cfi_def_cfa_offset 0
 262              		.cfi_restore 4
 461:Middlewares/Third_Party/FreeRTOS/portable/MemMang/heap_4.c ****         }
 263              		.loc 1 461 46 view .LVU96
 264 0058 7047     		bx	lr
 265              	.L22:
 266 005a 00BF     		.align	2
 267              	.L21:
 268 005c 00000000 		.word	.LANCHOR0
 269 0060 00000000 		.word	.LANCHOR1
 270              		.cfi_endproc
 271              	.LFE11:
 273              		.section	.text.pvPortMalloc,"ax",%progbits
 274              		.align	1
 275              		.global	pvPortMalloc
 276              		.syntax unified
 277              		.thumb
 278              		.thumb_func
 280              	pvPortMalloc:
 281              	.LVL21:
 282              	.LFB4:
 138:Middlewares/Third_Party/FreeRTOS/portable/MemMang/heap_4.c ****     BlockLink_t * pxBlock, * pxPreviousBlock, * pxNewBlockLink;
 283              		.loc 1 138 1 is_stmt 1 view -0
 284              		.cfi_startproc
 285              		@ args = 0, pretend = 0, frame = 0
 286              		@ frame_needed = 0, uses_anonymous_args = 0
 138:Middlewares/Third_Party/FreeRTOS/portable/MemMang/heap_4.c ****     BlockLink_t * pxBlock, * pxPreviousBlock, * pxNewBlockLink;
 287              		.loc 1 138 1 is_stmt 0 view .LVU98
 288 0000 70B5     		push	{r4, r5, r6, lr}
 289              	.LCFI4:
 290              		.cfi_def_cfa_offset 16
 291              		.cfi_offset 4, -16
 292              		.cfi_offset 5, -12
 293              		.cfi_offset 6, -8
 294              		.cfi_offset 14, -4
 295 0002 0546     		mov	r5, r0
ARM GAS  /tmp/cckNveCu.s 			page 15


 139:Middlewares/Third_Party/FreeRTOS/portable/MemMang/heap_4.c ****     void * pvReturn = NULL;
 296              		.loc 1 139 5 is_stmt 1 view .LVU99
 140:Middlewares/Third_Party/FreeRTOS/portable/MemMang/heap_4.c ****     size_t xAdditionalRequiredSize;
 297              		.loc 1 140 5 view .LVU100
 298              	.LVL22:
 141:Middlewares/Third_Party/FreeRTOS/portable/MemMang/heap_4.c **** 
 299              		.loc 1 141 5 view .LVU101
 143:Middlewares/Third_Party/FreeRTOS/portable/MemMang/heap_4.c ****     {
 300              		.loc 1 143 5 view .LVU102
 301 0004 FFF7FEFF 		bl	vTaskSuspendAll
 302              	.LVL23:
 147:Middlewares/Third_Party/FreeRTOS/portable/MemMang/heap_4.c ****         {
 303              		.loc 1 147 9 view .LVU103
 147:Middlewares/Third_Party/FreeRTOS/portable/MemMang/heap_4.c ****         {
 304              		.loc 1 147 19 is_stmt 0 view .LVU104
 305 0008 364B     		ldr	r3, .L43
 306 000a 1B68     		ldr	r3, [r3]
 147:Middlewares/Third_Party/FreeRTOS/portable/MemMang/heap_4.c ****         {
 307              		.loc 1 147 11 view .LVU105
 308 000c 9BB1     		cbz	r3, .L42
 309              	.L24:
 153:Middlewares/Third_Party/FreeRTOS/portable/MemMang/heap_4.c ****         }
 310              		.loc 1 153 37 is_stmt 1 view .LVU106
 156:Middlewares/Third_Party/FreeRTOS/portable/MemMang/heap_4.c ****         {
 311              		.loc 1 156 9 view .LVU107
 156:Middlewares/Third_Party/FreeRTOS/portable/MemMang/heap_4.c ****         {
 312              		.loc 1 156 11 is_stmt 0 view .LVU108
 313 000e 3DB1     		cbz	r5, .L25
 161:Middlewares/Third_Party/FreeRTOS/portable/MemMang/heap_4.c **** 
 314              		.loc 1 161 13 is_stmt 1 view .LVU109
 161:Middlewares/Third_Party/FreeRTOS/portable/MemMang/heap_4.c **** 
 315              		.loc 1 161 92 is_stmt 0 view .LVU110
 316 0010 05F00703 		and	r3, r5, #7
 161:Middlewares/Third_Party/FreeRTOS/portable/MemMang/heap_4.c **** 
 317              		.loc 1 161 37 view .LVU111
 318 0014 C3F11003 		rsb	r3, r3, #16
 319              	.LVL24:
 163:Middlewares/Third_Party/FreeRTOS/portable/MemMang/heap_4.c ****             {
 320              		.loc 1 163 13 is_stmt 1 view .LVU112
 163:Middlewares/Third_Party/FreeRTOS/portable/MemMang/heap_4.c ****             {
 321              		.loc 1 163 17 is_stmt 0 view .LVU113
 322 0018 DA43     		mvns	r2, r3
 163:Middlewares/Third_Party/FreeRTOS/portable/MemMang/heap_4.c ****             {
 323              		.loc 1 163 15 view .LVU114
 324 001a AA42     		cmp	r2, r5
 325 001c 0ED3     		bcc	.L35
 165:Middlewares/Third_Party/FreeRTOS/portable/MemMang/heap_4.c ****             }
 326              		.loc 1 165 17 is_stmt 1 view .LVU115
 165:Middlewares/Third_Party/FreeRTOS/portable/MemMang/heap_4.c ****             }
 327              		.loc 1 165 29 is_stmt 0 view .LVU116
 328 001e 1D44     		add	r5, r5, r3
 329              	.LVL25:
 330              	.L25:
 174:Middlewares/Third_Party/FreeRTOS/portable/MemMang/heap_4.c ****         }
 331              		.loc 1 174 37 is_stmt 1 view .LVU117
 181:Middlewares/Third_Party/FreeRTOS/portable/MemMang/heap_4.c ****         {
 332              		.loc 1 181 9 view .LVU118
ARM GAS  /tmp/cckNveCu.s 			page 16


 181:Middlewares/Third_Party/FreeRTOS/portable/MemMang/heap_4.c ****         {
 333              		.loc 1 181 11 is_stmt 0 view .LVU119
 334 0020 002D     		cmp	r5, #0
 335 0022 47DB     		blt	.L36
 183:Middlewares/Third_Party/FreeRTOS/portable/MemMang/heap_4.c ****             {
 336              		.loc 1 183 13 is_stmt 1 view .LVU120
 183:Middlewares/Third_Party/FreeRTOS/portable/MemMang/heap_4.c ****             {
 337              		.loc 1 183 15 is_stmt 0 view .LVU121
 338 0024 002D     		cmp	r5, #0
 339 0026 47D0     		beq	.L37
 183:Middlewares/Third_Party/FreeRTOS/portable/MemMang/heap_4.c ****             {
 340              		.loc 1 183 54 discriminator 1 view .LVU122
 341 0028 2F4B     		ldr	r3, .L43+4
 342 002a 1B68     		ldr	r3, [r3]
 183:Middlewares/Third_Party/FreeRTOS/portable/MemMang/heap_4.c ****             {
 343              		.loc 1 183 37 discriminator 1 view .LVU123
 344 002c AB42     		cmp	r3, r5
 345 002e 52D3     		bcc	.L38
 187:Middlewares/Third_Party/FreeRTOS/portable/MemMang/heap_4.c ****                 pxBlock = xStart.pxNextFreeBlock;
 346              		.loc 1 187 17 is_stmt 1 view .LVU124
 347              	.LVL26:
 188:Middlewares/Third_Party/FreeRTOS/portable/MemMang/heap_4.c **** 
 348              		.loc 1 188 17 view .LVU125
 188:Middlewares/Third_Party/FreeRTOS/portable/MemMang/heap_4.c **** 
 349              		.loc 1 188 25 is_stmt 0 view .LVU126
 350 0030 2E4A     		ldr	r2, .L43+8
 351 0032 1468     		ldr	r4, [r2]
 352              	.LVL27:
 190:Middlewares/Third_Party/FreeRTOS/portable/MemMang/heap_4.c ****                 {
 353              		.loc 1 190 17 is_stmt 1 view .LVU127
 190:Middlewares/Third_Party/FreeRTOS/portable/MemMang/heap_4.c ****                 {
 354              		.loc 1 190 22 is_stmt 0 view .LVU128
 355 0034 06E0     		b	.L28
 356              	.LVL28:
 357              	.L42:
 149:Middlewares/Third_Party/FreeRTOS/portable/MemMang/heap_4.c ****         }
 358              		.loc 1 149 13 is_stmt 1 view .LVU129
 359 0036 FFF7FEFF 		bl	prvHeapInit
 360              	.LVL29:
 361 003a E8E7     		b	.L24
 362              	.LVL30:
 363              	.L35:
 169:Middlewares/Third_Party/FreeRTOS/portable/MemMang/heap_4.c ****             }
 364              		.loc 1 169 29 is_stmt 0 view .LVU130
 365 003c 0025     		movs	r5, #0
 366              	.LVL31:
 169:Middlewares/Third_Party/FreeRTOS/portable/MemMang/heap_4.c ****             }
 367              		.loc 1 169 29 view .LVU131
 368 003e EFE7     		b	.L25
 369              	.LVL32:
 370              	.L39:
 192:Middlewares/Third_Party/FreeRTOS/portable/MemMang/heap_4.c ****                     pxBlock = pxBlock->pxNextFreeBlock;
 371              		.loc 1 192 37 view .LVU132
 372 0040 2246     		mov	r2, r4
 373              	.LVL33:
 193:Middlewares/Third_Party/FreeRTOS/portable/MemMang/heap_4.c ****                 }
 374              		.loc 1 193 29 view .LVU133
ARM GAS  /tmp/cckNveCu.s 			page 17


 375 0042 1C46     		mov	r4, r3
 376              	.LVL34:
 377              	.L28:
 190:Middlewares/Third_Party/FreeRTOS/portable/MemMang/heap_4.c ****                 {
 378              		.loc 1 190 22 is_stmt 1 view .LVU134
 190:Middlewares/Third_Party/FreeRTOS/portable/MemMang/heap_4.c ****                 {
 379              		.loc 1 190 33 is_stmt 0 view .LVU135
 380 0044 6368     		ldr	r3, [r4, #4]
 190:Middlewares/Third_Party/FreeRTOS/portable/MemMang/heap_4.c ****                 {
 381              		.loc 1 190 22 view .LVU136
 382 0046 AB42     		cmp	r3, r5
 383 0048 02D2     		bcs	.L27
 190:Middlewares/Third_Party/FreeRTOS/portable/MemMang/heap_4.c ****                 {
 384              		.loc 1 190 74 discriminator 1 view .LVU137
 385 004a 2368     		ldr	r3, [r4]
 190:Middlewares/Third_Party/FreeRTOS/portable/MemMang/heap_4.c ****                 {
 386              		.loc 1 190 62 discriminator 1 view .LVU138
 387 004c 002B     		cmp	r3, #0
 388 004e F7D1     		bne	.L39
 389              	.L27:
 198:Middlewares/Third_Party/FreeRTOS/portable/MemMang/heap_4.c ****                 {
 390              		.loc 1 198 17 is_stmt 1 view .LVU139
 198:Middlewares/Third_Party/FreeRTOS/portable/MemMang/heap_4.c ****                 {
 391              		.loc 1 198 29 is_stmt 0 view .LVU140
 392 0050 244B     		ldr	r3, .L43
 393 0052 1B68     		ldr	r3, [r3]
 198:Middlewares/Third_Party/FreeRTOS/portable/MemMang/heap_4.c ****                 {
 394              		.loc 1 198 19 view .LVU141
 395 0054 A342     		cmp	r3, r4
 396 0056 40D0     		beq	.L40
 202:Middlewares/Third_Party/FreeRTOS/portable/MemMang/heap_4.c **** 
 397              		.loc 1 202 21 is_stmt 1 view .LVU142
 202:Middlewares/Third_Party/FreeRTOS/portable/MemMang/heap_4.c **** 
 398              		.loc 1 202 76 is_stmt 0 view .LVU143
 399 0058 1668     		ldr	r6, [r2]
 202:Middlewares/Third_Party/FreeRTOS/portable/MemMang/heap_4.c **** 
 400              		.loc 1 202 30 view .LVU144
 401 005a 0836     		adds	r6, r6, #8
 402              	.LVL35:
 206:Middlewares/Third_Party/FreeRTOS/portable/MemMang/heap_4.c **** 
 403              		.loc 1 206 21 is_stmt 1 view .LVU145
 206:Middlewares/Third_Party/FreeRTOS/portable/MemMang/heap_4.c **** 
 404              		.loc 1 206 63 is_stmt 0 view .LVU146
 405 005c 2368     		ldr	r3, [r4]
 206:Middlewares/Third_Party/FreeRTOS/portable/MemMang/heap_4.c **** 
 406              		.loc 1 206 54 view .LVU147
 407 005e 1360     		str	r3, [r2]
 210:Middlewares/Third_Party/FreeRTOS/portable/MemMang/heap_4.c ****                     {
 408              		.loc 1 210 21 is_stmt 1 view .LVU148
 210:Middlewares/Third_Party/FreeRTOS/portable/MemMang/heap_4.c ****                     {
 409              		.loc 1 210 34 is_stmt 0 view .LVU149
 410 0060 6368     		ldr	r3, [r4, #4]
 210:Middlewares/Third_Party/FreeRTOS/portable/MemMang/heap_4.c ****                     {
 411              		.loc 1 210 47 view .LVU150
 412 0062 5B1B     		subs	r3, r3, r5
 210:Middlewares/Third_Party/FreeRTOS/portable/MemMang/heap_4.c ****                     {
 413              		.loc 1 210 23 view .LVU151
ARM GAS  /tmp/cckNveCu.s 			page 18


 414 0064 102B     		cmp	r3, #16
 415 0066 10D9     		bls	.L29
 216:Middlewares/Third_Party/FreeRTOS/portable/MemMang/heap_4.c ****                         configASSERT( ( ( ( size_t ) pxNewBlockLink ) & portBYTE_ALIGNMENT_MASK ) =
 416              		.loc 1 216 25 is_stmt 1 view .LVU152
 216:Middlewares/Third_Party/FreeRTOS/portable/MemMang/heap_4.c ****                         configASSERT( ( ( ( size_t ) pxNewBlockLink ) & portBYTE_ALIGNMENT_MASK ) =
 417              		.loc 1 216 40 is_stmt 0 view .LVU153
 418 0068 6019     		adds	r0, r4, r5
 419              	.LVL36:
 217:Middlewares/Third_Party/FreeRTOS/portable/MemMang/heap_4.c **** 
 420              		.loc 1 217 25 is_stmt 1 view .LVU154
 421 006a 10F0070F 		tst	r0, #7
 422 006e 08D0     		beq	.L30
 217:Middlewares/Third_Party/FreeRTOS/portable/MemMang/heap_4.c **** 
 423              		.loc 1 217 25 view .LVU155
 424              	.LBB10:
 425              	.LBI10:
 426              		.file 2 "Middlewares/Third_Party/FreeRTOS/portable/GCC/ARM_CM4F/portmacro.h"
   1:Middlewares/Third_Party/FreeRTOS/portable/GCC/ARM_CM4F/portmacro.h **** /*
   2:Middlewares/Third_Party/FreeRTOS/portable/GCC/ARM_CM4F/portmacro.h ****  * FreeRTOS Kernel V10.5.0
   3:Middlewares/Third_Party/FreeRTOS/portable/GCC/ARM_CM4F/portmacro.h ****  * Copyright (C) 2021 Amazon.com, Inc. or its affiliates.  All Rights Reserved.
   4:Middlewares/Third_Party/FreeRTOS/portable/GCC/ARM_CM4F/portmacro.h ****  *
   5:Middlewares/Third_Party/FreeRTOS/portable/GCC/ARM_CM4F/portmacro.h ****  * SPDX-License-Identifier: MIT
   6:Middlewares/Third_Party/FreeRTOS/portable/GCC/ARM_CM4F/portmacro.h ****  *
   7:Middlewares/Third_Party/FreeRTOS/portable/GCC/ARM_CM4F/portmacro.h ****  * Permission is hereby granted, free of charge, to any person obtaining a copy of
   8:Middlewares/Third_Party/FreeRTOS/portable/GCC/ARM_CM4F/portmacro.h ****  * this software and associated documentation files (the "Software"), to deal in
   9:Middlewares/Third_Party/FreeRTOS/portable/GCC/ARM_CM4F/portmacro.h ****  * the Software without restriction, including without limitation the rights to
  10:Middlewares/Third_Party/FreeRTOS/portable/GCC/ARM_CM4F/portmacro.h ****  * use, copy, modify, merge, publish, distribute, sublicense, and/or sell copies of
  11:Middlewares/Third_Party/FreeRTOS/portable/GCC/ARM_CM4F/portmacro.h ****  * the Software, and to permit persons to whom the Software is furnished to do so,
  12:Middlewares/Third_Party/FreeRTOS/portable/GCC/ARM_CM4F/portmacro.h ****  * subject to the following conditions:
  13:Middlewares/Third_Party/FreeRTOS/portable/GCC/ARM_CM4F/portmacro.h ****  *
  14:Middlewares/Third_Party/FreeRTOS/portable/GCC/ARM_CM4F/portmacro.h ****  * The above copyright notice and this permission notice shall be included in all
  15:Middlewares/Third_Party/FreeRTOS/portable/GCC/ARM_CM4F/portmacro.h ****  * copies or substantial portions of the Software.
  16:Middlewares/Third_Party/FreeRTOS/portable/GCC/ARM_CM4F/portmacro.h ****  *
  17:Middlewares/Third_Party/FreeRTOS/portable/GCC/ARM_CM4F/portmacro.h ****  * THE SOFTWARE IS PROVIDED "AS IS", WITHOUT WARRANTY OF ANY KIND, EXPRESS OR
  18:Middlewares/Third_Party/FreeRTOS/portable/GCC/ARM_CM4F/portmacro.h ****  * IMPLIED, INCLUDING BUT NOT LIMITED TO THE WARRANTIES OF MERCHANTABILITY, FITNESS
  19:Middlewares/Third_Party/FreeRTOS/portable/GCC/ARM_CM4F/portmacro.h ****  * FOR A PARTICULAR PURPOSE AND NONINFRINGEMENT. IN NO EVENT SHALL THE AUTHORS OR
  20:Middlewares/Third_Party/FreeRTOS/portable/GCC/ARM_CM4F/portmacro.h ****  * COPYRIGHT HOLDERS BE LIABLE FOR ANY CLAIM, DAMAGES OR OTHER LIABILITY, WHETHER
  21:Middlewares/Third_Party/FreeRTOS/portable/GCC/ARM_CM4F/portmacro.h ****  * IN AN ACTION OF CONTRACT, TORT OR OTHERWISE, ARISING FROM, OUT OF OR IN
  22:Middlewares/Third_Party/FreeRTOS/portable/GCC/ARM_CM4F/portmacro.h ****  * CONNECTION WITH THE SOFTWARE OR THE USE OR OTHER DEALINGS IN THE SOFTWARE.
  23:Middlewares/Third_Party/FreeRTOS/portable/GCC/ARM_CM4F/portmacro.h ****  *
  24:Middlewares/Third_Party/FreeRTOS/portable/GCC/ARM_CM4F/portmacro.h ****  * https://www.FreeRTOS.org
  25:Middlewares/Third_Party/FreeRTOS/portable/GCC/ARM_CM4F/portmacro.h ****  * https://github.com/FreeRTOS
  26:Middlewares/Third_Party/FreeRTOS/portable/GCC/ARM_CM4F/portmacro.h ****  *
  27:Middlewares/Third_Party/FreeRTOS/portable/GCC/ARM_CM4F/portmacro.h ****  */
  28:Middlewares/Third_Party/FreeRTOS/portable/GCC/ARM_CM4F/portmacro.h **** 
  29:Middlewares/Third_Party/FreeRTOS/portable/GCC/ARM_CM4F/portmacro.h **** 
  30:Middlewares/Third_Party/FreeRTOS/portable/GCC/ARM_CM4F/portmacro.h **** #ifndef PORTMACRO_H
  31:Middlewares/Third_Party/FreeRTOS/portable/GCC/ARM_CM4F/portmacro.h ****     #define PORTMACRO_H
  32:Middlewares/Third_Party/FreeRTOS/portable/GCC/ARM_CM4F/portmacro.h **** 
  33:Middlewares/Third_Party/FreeRTOS/portable/GCC/ARM_CM4F/portmacro.h ****     #ifdef __cplusplus
  34:Middlewares/Third_Party/FreeRTOS/portable/GCC/ARM_CM4F/portmacro.h ****         extern "C" {
  35:Middlewares/Third_Party/FreeRTOS/portable/GCC/ARM_CM4F/portmacro.h ****     #endif
  36:Middlewares/Third_Party/FreeRTOS/portable/GCC/ARM_CM4F/portmacro.h **** 
  37:Middlewares/Third_Party/FreeRTOS/portable/GCC/ARM_CM4F/portmacro.h **** /*-----------------------------------------------------------
  38:Middlewares/Third_Party/FreeRTOS/portable/GCC/ARM_CM4F/portmacro.h ****  * Port specific definitions.
  39:Middlewares/Third_Party/FreeRTOS/portable/GCC/ARM_CM4F/portmacro.h ****  *
  40:Middlewares/Third_Party/FreeRTOS/portable/GCC/ARM_CM4F/portmacro.h ****  * The settings in this file configure FreeRTOS correctly for the
ARM GAS  /tmp/cckNveCu.s 			page 19


  41:Middlewares/Third_Party/FreeRTOS/portable/GCC/ARM_CM4F/portmacro.h ****  * given hardware and compiler.
  42:Middlewares/Third_Party/FreeRTOS/portable/GCC/ARM_CM4F/portmacro.h ****  *
  43:Middlewares/Third_Party/FreeRTOS/portable/GCC/ARM_CM4F/portmacro.h ****  * These settings should not be altered.
  44:Middlewares/Third_Party/FreeRTOS/portable/GCC/ARM_CM4F/portmacro.h ****  *-----------------------------------------------------------
  45:Middlewares/Third_Party/FreeRTOS/portable/GCC/ARM_CM4F/portmacro.h ****  */
  46:Middlewares/Third_Party/FreeRTOS/portable/GCC/ARM_CM4F/portmacro.h **** 
  47:Middlewares/Third_Party/FreeRTOS/portable/GCC/ARM_CM4F/portmacro.h **** /* Type definitions. */
  48:Middlewares/Third_Party/FreeRTOS/portable/GCC/ARM_CM4F/portmacro.h ****     #define portCHAR          char
  49:Middlewares/Third_Party/FreeRTOS/portable/GCC/ARM_CM4F/portmacro.h ****     #define portFLOAT         float
  50:Middlewares/Third_Party/FreeRTOS/portable/GCC/ARM_CM4F/portmacro.h ****     #define portDOUBLE        double
  51:Middlewares/Third_Party/FreeRTOS/portable/GCC/ARM_CM4F/portmacro.h ****     #define portLONG          long
  52:Middlewares/Third_Party/FreeRTOS/portable/GCC/ARM_CM4F/portmacro.h ****     #define portSHORT         short
  53:Middlewares/Third_Party/FreeRTOS/portable/GCC/ARM_CM4F/portmacro.h ****     #define portSTACK_TYPE    uint32_t
  54:Middlewares/Third_Party/FreeRTOS/portable/GCC/ARM_CM4F/portmacro.h ****     #define portBASE_TYPE     long
  55:Middlewares/Third_Party/FreeRTOS/portable/GCC/ARM_CM4F/portmacro.h **** 
  56:Middlewares/Third_Party/FreeRTOS/portable/GCC/ARM_CM4F/portmacro.h ****     typedef portSTACK_TYPE   StackType_t;
  57:Middlewares/Third_Party/FreeRTOS/portable/GCC/ARM_CM4F/portmacro.h ****     typedef long             BaseType_t;
  58:Middlewares/Third_Party/FreeRTOS/portable/GCC/ARM_CM4F/portmacro.h ****     typedef unsigned long    UBaseType_t;
  59:Middlewares/Third_Party/FreeRTOS/portable/GCC/ARM_CM4F/portmacro.h **** 
  60:Middlewares/Third_Party/FreeRTOS/portable/GCC/ARM_CM4F/portmacro.h ****     #if ( configUSE_16_BIT_TICKS == 1 )
  61:Middlewares/Third_Party/FreeRTOS/portable/GCC/ARM_CM4F/portmacro.h ****         typedef uint16_t     TickType_t;
  62:Middlewares/Third_Party/FreeRTOS/portable/GCC/ARM_CM4F/portmacro.h ****         #define portMAX_DELAY              ( TickType_t ) 0xffff
  63:Middlewares/Third_Party/FreeRTOS/portable/GCC/ARM_CM4F/portmacro.h ****     #else
  64:Middlewares/Third_Party/FreeRTOS/portable/GCC/ARM_CM4F/portmacro.h ****         typedef uint32_t     TickType_t;
  65:Middlewares/Third_Party/FreeRTOS/portable/GCC/ARM_CM4F/portmacro.h ****         #define portMAX_DELAY              ( TickType_t ) 0xffffffffUL
  66:Middlewares/Third_Party/FreeRTOS/portable/GCC/ARM_CM4F/portmacro.h **** 
  67:Middlewares/Third_Party/FreeRTOS/portable/GCC/ARM_CM4F/portmacro.h **** /* 32-bit tick type on a 32-bit architecture, so reads of the tick count do
  68:Middlewares/Third_Party/FreeRTOS/portable/GCC/ARM_CM4F/portmacro.h ****  * not need to be guarded with a critical section. */
  69:Middlewares/Third_Party/FreeRTOS/portable/GCC/ARM_CM4F/portmacro.h ****         #define portTICK_TYPE_IS_ATOMIC    1
  70:Middlewares/Third_Party/FreeRTOS/portable/GCC/ARM_CM4F/portmacro.h ****     #endif
  71:Middlewares/Third_Party/FreeRTOS/portable/GCC/ARM_CM4F/portmacro.h **** /*-----------------------------------------------------------*/
  72:Middlewares/Third_Party/FreeRTOS/portable/GCC/ARM_CM4F/portmacro.h **** 
  73:Middlewares/Third_Party/FreeRTOS/portable/GCC/ARM_CM4F/portmacro.h **** /* Architecture specifics. */
  74:Middlewares/Third_Party/FreeRTOS/portable/GCC/ARM_CM4F/portmacro.h ****     #define portSTACK_GROWTH      ( -1 )
  75:Middlewares/Third_Party/FreeRTOS/portable/GCC/ARM_CM4F/portmacro.h ****     #define portTICK_PERIOD_MS    ( ( TickType_t ) 1000 / configTICK_RATE_HZ )
  76:Middlewares/Third_Party/FreeRTOS/portable/GCC/ARM_CM4F/portmacro.h ****     #define portBYTE_ALIGNMENT    8
  77:Middlewares/Third_Party/FreeRTOS/portable/GCC/ARM_CM4F/portmacro.h ****     #define portDONT_DISCARD      __attribute__( ( used ) )
  78:Middlewares/Third_Party/FreeRTOS/portable/GCC/ARM_CM4F/portmacro.h **** /*-----------------------------------------------------------*/
  79:Middlewares/Third_Party/FreeRTOS/portable/GCC/ARM_CM4F/portmacro.h **** 
  80:Middlewares/Third_Party/FreeRTOS/portable/GCC/ARM_CM4F/portmacro.h **** /* Scheduler utilities. */
  81:Middlewares/Third_Party/FreeRTOS/portable/GCC/ARM_CM4F/portmacro.h ****     #define portYIELD()                                 \
  82:Middlewares/Third_Party/FreeRTOS/portable/GCC/ARM_CM4F/portmacro.h ****     {                                                   \
  83:Middlewares/Third_Party/FreeRTOS/portable/GCC/ARM_CM4F/portmacro.h ****         /* Set a PendSV to request a context switch. */ \
  84:Middlewares/Third_Party/FreeRTOS/portable/GCC/ARM_CM4F/portmacro.h ****         portNVIC_INT_CTRL_REG = portNVIC_PENDSVSET_BIT; \
  85:Middlewares/Third_Party/FreeRTOS/portable/GCC/ARM_CM4F/portmacro.h ****                                                         \
  86:Middlewares/Third_Party/FreeRTOS/portable/GCC/ARM_CM4F/portmacro.h ****         /* Barriers are normally not required but do ensure the code is completely \
  87:Middlewares/Third_Party/FreeRTOS/portable/GCC/ARM_CM4F/portmacro.h ****          * within the specified behaviour for the architecture. */ \
  88:Middlewares/Third_Party/FreeRTOS/portable/GCC/ARM_CM4F/portmacro.h ****         __asm volatile ( "dsb" ::: "memory" );                     \
  89:Middlewares/Third_Party/FreeRTOS/portable/GCC/ARM_CM4F/portmacro.h ****         __asm volatile ( "isb" );                                  \
  90:Middlewares/Third_Party/FreeRTOS/portable/GCC/ARM_CM4F/portmacro.h ****     }
  91:Middlewares/Third_Party/FreeRTOS/portable/GCC/ARM_CM4F/portmacro.h **** 
  92:Middlewares/Third_Party/FreeRTOS/portable/GCC/ARM_CM4F/portmacro.h ****     #define portNVIC_INT_CTRL_REG     ( *( ( volatile uint32_t * ) 0xe000ed04 ) )
  93:Middlewares/Third_Party/FreeRTOS/portable/GCC/ARM_CM4F/portmacro.h ****     #define portNVIC_PENDSVSET_BIT    ( 1UL << 28UL )
  94:Middlewares/Third_Party/FreeRTOS/portable/GCC/ARM_CM4F/portmacro.h ****     #define portEND_SWITCHING_ISR( xSwitchRequired )    do { if( xSwitchRequired != pdFALSE ) portY
  95:Middlewares/Third_Party/FreeRTOS/portable/GCC/ARM_CM4F/portmacro.h ****     #define portYIELD_FROM_ISR( x )                     portEND_SWITCHING_ISR( x )
  96:Middlewares/Third_Party/FreeRTOS/portable/GCC/ARM_CM4F/portmacro.h **** /*-----------------------------------------------------------*/
  97:Middlewares/Third_Party/FreeRTOS/portable/GCC/ARM_CM4F/portmacro.h **** 
ARM GAS  /tmp/cckNveCu.s 			page 20


  98:Middlewares/Third_Party/FreeRTOS/portable/GCC/ARM_CM4F/portmacro.h **** /* Critical section management. */
  99:Middlewares/Third_Party/FreeRTOS/portable/GCC/ARM_CM4F/portmacro.h ****     extern void vPortEnterCritical( void );
 100:Middlewares/Third_Party/FreeRTOS/portable/GCC/ARM_CM4F/portmacro.h ****     extern void vPortExitCritical( void );
 101:Middlewares/Third_Party/FreeRTOS/portable/GCC/ARM_CM4F/portmacro.h ****     #define portSET_INTERRUPT_MASK_FROM_ISR()         ulPortRaiseBASEPRI()
 102:Middlewares/Third_Party/FreeRTOS/portable/GCC/ARM_CM4F/portmacro.h ****     #define portCLEAR_INTERRUPT_MASK_FROM_ISR( x )    vPortSetBASEPRI( x )
 103:Middlewares/Third_Party/FreeRTOS/portable/GCC/ARM_CM4F/portmacro.h ****     #define portDISABLE_INTERRUPTS()                  vPortRaiseBASEPRI()
 104:Middlewares/Third_Party/FreeRTOS/portable/GCC/ARM_CM4F/portmacro.h ****     #define portENABLE_INTERRUPTS()                   vPortSetBASEPRI( 0 )
 105:Middlewares/Third_Party/FreeRTOS/portable/GCC/ARM_CM4F/portmacro.h ****     #define portENTER_CRITICAL()                      vPortEnterCritical()
 106:Middlewares/Third_Party/FreeRTOS/portable/GCC/ARM_CM4F/portmacro.h ****     #define portEXIT_CRITICAL()                       vPortExitCritical()
 107:Middlewares/Third_Party/FreeRTOS/portable/GCC/ARM_CM4F/portmacro.h **** 
 108:Middlewares/Third_Party/FreeRTOS/portable/GCC/ARM_CM4F/portmacro.h **** /*-----------------------------------------------------------*/
 109:Middlewares/Third_Party/FreeRTOS/portable/GCC/ARM_CM4F/portmacro.h **** 
 110:Middlewares/Third_Party/FreeRTOS/portable/GCC/ARM_CM4F/portmacro.h **** /* Task function macros as described on the FreeRTOS.org WEB site.  These are
 111:Middlewares/Third_Party/FreeRTOS/portable/GCC/ARM_CM4F/portmacro.h ****  * not necessary for to use this port.  They are defined so the common demo files
 112:Middlewares/Third_Party/FreeRTOS/portable/GCC/ARM_CM4F/portmacro.h ****  * (which build with all the ports) will build. */
 113:Middlewares/Third_Party/FreeRTOS/portable/GCC/ARM_CM4F/portmacro.h ****     #define portTASK_FUNCTION_PROTO( vFunction, pvParameters )    void vFunction( void * pvParamete
 114:Middlewares/Third_Party/FreeRTOS/portable/GCC/ARM_CM4F/portmacro.h ****     #define portTASK_FUNCTION( vFunction, pvParameters )          void vFunction( void * pvParamete
 115:Middlewares/Third_Party/FreeRTOS/portable/GCC/ARM_CM4F/portmacro.h **** /*-----------------------------------------------------------*/
 116:Middlewares/Third_Party/FreeRTOS/portable/GCC/ARM_CM4F/portmacro.h **** 
 117:Middlewares/Third_Party/FreeRTOS/portable/GCC/ARM_CM4F/portmacro.h **** /* Tickless idle/low power functionality. */
 118:Middlewares/Third_Party/FreeRTOS/portable/GCC/ARM_CM4F/portmacro.h ****     #ifndef portSUPPRESS_TICKS_AND_SLEEP
 119:Middlewares/Third_Party/FreeRTOS/portable/GCC/ARM_CM4F/portmacro.h ****         extern void vPortSuppressTicksAndSleep( TickType_t xExpectedIdleTime );
 120:Middlewares/Third_Party/FreeRTOS/portable/GCC/ARM_CM4F/portmacro.h ****         #define portSUPPRESS_TICKS_AND_SLEEP( xExpectedIdleTime )    vPortSuppressTicksAndSleep( xE
 121:Middlewares/Third_Party/FreeRTOS/portable/GCC/ARM_CM4F/portmacro.h ****     #endif
 122:Middlewares/Third_Party/FreeRTOS/portable/GCC/ARM_CM4F/portmacro.h **** /*-----------------------------------------------------------*/
 123:Middlewares/Third_Party/FreeRTOS/portable/GCC/ARM_CM4F/portmacro.h **** 
 124:Middlewares/Third_Party/FreeRTOS/portable/GCC/ARM_CM4F/portmacro.h **** /* Architecture specific optimisations. */
 125:Middlewares/Third_Party/FreeRTOS/portable/GCC/ARM_CM4F/portmacro.h ****     #ifndef configUSE_PORT_OPTIMISED_TASK_SELECTION
 126:Middlewares/Third_Party/FreeRTOS/portable/GCC/ARM_CM4F/portmacro.h ****         #define configUSE_PORT_OPTIMISED_TASK_SELECTION    1
 127:Middlewares/Third_Party/FreeRTOS/portable/GCC/ARM_CM4F/portmacro.h ****     #endif
 128:Middlewares/Third_Party/FreeRTOS/portable/GCC/ARM_CM4F/portmacro.h **** 
 129:Middlewares/Third_Party/FreeRTOS/portable/GCC/ARM_CM4F/portmacro.h ****     #if configUSE_PORT_OPTIMISED_TASK_SELECTION == 1
 130:Middlewares/Third_Party/FreeRTOS/portable/GCC/ARM_CM4F/portmacro.h **** 
 131:Middlewares/Third_Party/FreeRTOS/portable/GCC/ARM_CM4F/portmacro.h **** /* Generic helper function. */
 132:Middlewares/Third_Party/FreeRTOS/portable/GCC/ARM_CM4F/portmacro.h ****         __attribute__( ( always_inline ) ) static inline uint8_t ucPortCountLeadingZeros( uint32_t 
 133:Middlewares/Third_Party/FreeRTOS/portable/GCC/ARM_CM4F/portmacro.h ****         {
 134:Middlewares/Third_Party/FreeRTOS/portable/GCC/ARM_CM4F/portmacro.h ****             uint8_t ucReturn;
 135:Middlewares/Third_Party/FreeRTOS/portable/GCC/ARM_CM4F/portmacro.h **** 
 136:Middlewares/Third_Party/FreeRTOS/portable/GCC/ARM_CM4F/portmacro.h ****             __asm volatile ( "clz %0, %1" : "=r" ( ucReturn ) : "r" ( ulBitmap ) : "memory" );
 137:Middlewares/Third_Party/FreeRTOS/portable/GCC/ARM_CM4F/portmacro.h **** 
 138:Middlewares/Third_Party/FreeRTOS/portable/GCC/ARM_CM4F/portmacro.h ****             return ucReturn;
 139:Middlewares/Third_Party/FreeRTOS/portable/GCC/ARM_CM4F/portmacro.h ****         }
 140:Middlewares/Third_Party/FreeRTOS/portable/GCC/ARM_CM4F/portmacro.h **** 
 141:Middlewares/Third_Party/FreeRTOS/portable/GCC/ARM_CM4F/portmacro.h **** /* Check the configuration. */
 142:Middlewares/Third_Party/FreeRTOS/portable/GCC/ARM_CM4F/portmacro.h ****         #if ( configMAX_PRIORITIES > 32 )
 143:Middlewares/Third_Party/FreeRTOS/portable/GCC/ARM_CM4F/portmacro.h ****             #error configUSE_PORT_OPTIMISED_TASK_SELECTION can only be set to 1 when configMAX_PRIO
 144:Middlewares/Third_Party/FreeRTOS/portable/GCC/ARM_CM4F/portmacro.h ****         #endif
 145:Middlewares/Third_Party/FreeRTOS/portable/GCC/ARM_CM4F/portmacro.h **** 
 146:Middlewares/Third_Party/FreeRTOS/portable/GCC/ARM_CM4F/portmacro.h **** /* Store/clear the ready priorities in a bit map. */
 147:Middlewares/Third_Party/FreeRTOS/portable/GCC/ARM_CM4F/portmacro.h ****         #define portRECORD_READY_PRIORITY( uxPriority, uxReadyPriorities )    ( uxReadyPriorities )
 148:Middlewares/Third_Party/FreeRTOS/portable/GCC/ARM_CM4F/portmacro.h ****         #define portRESET_READY_PRIORITY( uxPriority, uxReadyPriorities )     ( uxReadyPriorities )
 149:Middlewares/Third_Party/FreeRTOS/portable/GCC/ARM_CM4F/portmacro.h **** 
 150:Middlewares/Third_Party/FreeRTOS/portable/GCC/ARM_CM4F/portmacro.h **** /*-----------------------------------------------------------*/
 151:Middlewares/Third_Party/FreeRTOS/portable/GCC/ARM_CM4F/portmacro.h **** 
 152:Middlewares/Third_Party/FreeRTOS/portable/GCC/ARM_CM4F/portmacro.h ****         #define portGET_HIGHEST_PRIORITY( uxTopPriority, uxReadyPriorities )    uxTopPriority = ( 3
 153:Middlewares/Third_Party/FreeRTOS/portable/GCC/ARM_CM4F/portmacro.h **** 
 154:Middlewares/Third_Party/FreeRTOS/portable/GCC/ARM_CM4F/portmacro.h ****     #endif /* configUSE_PORT_OPTIMISED_TASK_SELECTION */
ARM GAS  /tmp/cckNveCu.s 			page 21


 155:Middlewares/Third_Party/FreeRTOS/portable/GCC/ARM_CM4F/portmacro.h **** 
 156:Middlewares/Third_Party/FreeRTOS/portable/GCC/ARM_CM4F/portmacro.h **** /*-----------------------------------------------------------*/
 157:Middlewares/Third_Party/FreeRTOS/portable/GCC/ARM_CM4F/portmacro.h **** 
 158:Middlewares/Third_Party/FreeRTOS/portable/GCC/ARM_CM4F/portmacro.h ****     #ifdef configASSERT
 159:Middlewares/Third_Party/FreeRTOS/portable/GCC/ARM_CM4F/portmacro.h ****         void vPortValidateInterruptPriority( void );
 160:Middlewares/Third_Party/FreeRTOS/portable/GCC/ARM_CM4F/portmacro.h ****         #define portASSERT_IF_INTERRUPT_PRIORITY_INVALID()    vPortValidateInterruptPriority()
 161:Middlewares/Third_Party/FreeRTOS/portable/GCC/ARM_CM4F/portmacro.h ****     #endif
 162:Middlewares/Third_Party/FreeRTOS/portable/GCC/ARM_CM4F/portmacro.h **** 
 163:Middlewares/Third_Party/FreeRTOS/portable/GCC/ARM_CM4F/portmacro.h **** /* portNOP() is not required by this port. */
 164:Middlewares/Third_Party/FreeRTOS/portable/GCC/ARM_CM4F/portmacro.h ****     #define portNOP()
 165:Middlewares/Third_Party/FreeRTOS/portable/GCC/ARM_CM4F/portmacro.h **** 
 166:Middlewares/Third_Party/FreeRTOS/portable/GCC/ARM_CM4F/portmacro.h ****     #define portINLINE              __inline
 167:Middlewares/Third_Party/FreeRTOS/portable/GCC/ARM_CM4F/portmacro.h **** 
 168:Middlewares/Third_Party/FreeRTOS/portable/GCC/ARM_CM4F/portmacro.h ****     #ifndef portFORCE_INLINE
 169:Middlewares/Third_Party/FreeRTOS/portable/GCC/ARM_CM4F/portmacro.h ****         #define portFORCE_INLINE    inline __attribute__( ( always_inline ) )
 170:Middlewares/Third_Party/FreeRTOS/portable/GCC/ARM_CM4F/portmacro.h ****     #endif
 171:Middlewares/Third_Party/FreeRTOS/portable/GCC/ARM_CM4F/portmacro.h **** 
 172:Middlewares/Third_Party/FreeRTOS/portable/GCC/ARM_CM4F/portmacro.h ****     portFORCE_INLINE static BaseType_t xPortIsInsideInterrupt( void )
 173:Middlewares/Third_Party/FreeRTOS/portable/GCC/ARM_CM4F/portmacro.h ****     {
 174:Middlewares/Third_Party/FreeRTOS/portable/GCC/ARM_CM4F/portmacro.h ****         uint32_t ulCurrentInterrupt;
 175:Middlewares/Third_Party/FreeRTOS/portable/GCC/ARM_CM4F/portmacro.h ****         BaseType_t xReturn;
 176:Middlewares/Third_Party/FreeRTOS/portable/GCC/ARM_CM4F/portmacro.h **** 
 177:Middlewares/Third_Party/FreeRTOS/portable/GCC/ARM_CM4F/portmacro.h ****         /* Obtain the number of the currently executing interrupt. */
 178:Middlewares/Third_Party/FreeRTOS/portable/GCC/ARM_CM4F/portmacro.h ****         __asm volatile ( "mrs %0, ipsr" : "=r" ( ulCurrentInterrupt )::"memory" );
 179:Middlewares/Third_Party/FreeRTOS/portable/GCC/ARM_CM4F/portmacro.h **** 
 180:Middlewares/Third_Party/FreeRTOS/portable/GCC/ARM_CM4F/portmacro.h ****         if( ulCurrentInterrupt == 0 )
 181:Middlewares/Third_Party/FreeRTOS/portable/GCC/ARM_CM4F/portmacro.h ****         {
 182:Middlewares/Third_Party/FreeRTOS/portable/GCC/ARM_CM4F/portmacro.h ****             xReturn = pdFALSE;
 183:Middlewares/Third_Party/FreeRTOS/portable/GCC/ARM_CM4F/portmacro.h ****         }
 184:Middlewares/Third_Party/FreeRTOS/portable/GCC/ARM_CM4F/portmacro.h ****         else
 185:Middlewares/Third_Party/FreeRTOS/portable/GCC/ARM_CM4F/portmacro.h ****         {
 186:Middlewares/Third_Party/FreeRTOS/portable/GCC/ARM_CM4F/portmacro.h ****             xReturn = pdTRUE;
 187:Middlewares/Third_Party/FreeRTOS/portable/GCC/ARM_CM4F/portmacro.h ****         }
 188:Middlewares/Third_Party/FreeRTOS/portable/GCC/ARM_CM4F/portmacro.h **** 
 189:Middlewares/Third_Party/FreeRTOS/portable/GCC/ARM_CM4F/portmacro.h ****         return xReturn;
 190:Middlewares/Third_Party/FreeRTOS/portable/GCC/ARM_CM4F/portmacro.h ****     }
 191:Middlewares/Third_Party/FreeRTOS/portable/GCC/ARM_CM4F/portmacro.h **** 
 192:Middlewares/Third_Party/FreeRTOS/portable/GCC/ARM_CM4F/portmacro.h **** /*-----------------------------------------------------------*/
 193:Middlewares/Third_Party/FreeRTOS/portable/GCC/ARM_CM4F/portmacro.h **** 
 194:Middlewares/Third_Party/FreeRTOS/portable/GCC/ARM_CM4F/portmacro.h ****     portFORCE_INLINE static void vPortRaiseBASEPRI( void )
 427              		.loc 2 194 34 view .LVU156
 428              	.LBB11:
 195:Middlewares/Third_Party/FreeRTOS/portable/GCC/ARM_CM4F/portmacro.h ****     {
 196:Middlewares/Third_Party/FreeRTOS/portable/GCC/ARM_CM4F/portmacro.h ****         uint32_t ulNewBASEPRI;
 429              		.loc 2 196 9 view .LVU157
 197:Middlewares/Third_Party/FreeRTOS/portable/GCC/ARM_CM4F/portmacro.h **** 
 198:Middlewares/Third_Party/FreeRTOS/portable/GCC/ARM_CM4F/portmacro.h ****         __asm volatile
 430              		.loc 2 198 9 view .LVU158
 431              		.syntax unified
 432              	@ 198 "Middlewares/Third_Party/FreeRTOS/portable/GCC/ARM_CM4F/portmacro.h" 1
 433 0070 4FF05003 			mov r3, #80												
 434 0074 83F31188 		msr basepri, r3											
 435 0078 BFF36F8F 		isb														
 436 007c BFF34F8F 		dsb														
 437              	
 438              	@ 0 "" 2
 439              	.LVL37:
ARM GAS  /tmp/cckNveCu.s 			page 22


 440              		.thumb
 441              		.syntax unified
 442              	.L31:
 443              		.loc 2 198 9 is_stmt 0 view .LVU159
 444              	.LBE11:
 445              	.LBE10:
 217:Middlewares/Third_Party/FreeRTOS/portable/MemMang/heap_4.c **** 
 446              		.loc 1 217 25 is_stmt 1 discriminator 1 view .LVU160
 217:Middlewares/Third_Party/FreeRTOS/portable/MemMang/heap_4.c **** 
 447              		.loc 1 217 25 discriminator 1 view .LVU161
 217:Middlewares/Third_Party/FreeRTOS/portable/MemMang/heap_4.c **** 
 448              		.loc 1 217 25 discriminator 1 view .LVU162
 449 0080 FEE7     		b	.L31
 450              	.L30:
 217:Middlewares/Third_Party/FreeRTOS/portable/MemMang/heap_4.c **** 
 451              		.loc 1 217 105 discriminator 2 view .LVU163
 221:Middlewares/Third_Party/FreeRTOS/portable/MemMang/heap_4.c ****                         pxBlock->xBlockSize = xWantedSize;
 452              		.loc 1 221 25 discriminator 2 view .LVU164
 221:Middlewares/Third_Party/FreeRTOS/portable/MemMang/heap_4.c ****                         pxBlock->xBlockSize = xWantedSize;
 453              		.loc 1 221 52 is_stmt 0 discriminator 2 view .LVU165
 454 0082 4360     		str	r3, [r0, #4]
 222:Middlewares/Third_Party/FreeRTOS/portable/MemMang/heap_4.c **** 
 455              		.loc 1 222 25 is_stmt 1 discriminator 2 view .LVU166
 222:Middlewares/Third_Party/FreeRTOS/portable/MemMang/heap_4.c **** 
 456              		.loc 1 222 45 is_stmt 0 discriminator 2 view .LVU167
 457 0084 6560     		str	r5, [r4, #4]
 225:Middlewares/Third_Party/FreeRTOS/portable/MemMang/heap_4.c ****                     }
 458              		.loc 1 225 25 is_stmt 1 discriminator 2 view .LVU168
 459 0086 FFF7FEFF 		bl	prvInsertBlockIntoFreeList
 460              	.LVL38:
 461              	.L29:
 229:Middlewares/Third_Party/FreeRTOS/portable/MemMang/heap_4.c ****                     }
 462              		.loc 1 229 49 view .LVU169
 232:Middlewares/Third_Party/FreeRTOS/portable/MemMang/heap_4.c **** 
 463              		.loc 1 232 21 view .LVU170
 232:Middlewares/Third_Party/FreeRTOS/portable/MemMang/heap_4.c **** 
 464              		.loc 1 232 51 is_stmt 0 view .LVU171
 465 008a 6268     		ldr	r2, [r4, #4]
 232:Middlewares/Third_Party/FreeRTOS/portable/MemMang/heap_4.c **** 
 466              		.loc 1 232 41 view .LVU172
 467 008c 1649     		ldr	r1, .L43+4
 468 008e 0B68     		ldr	r3, [r1]
 469 0090 9B1A     		subs	r3, r3, r2
 470 0092 0B60     		str	r3, [r1]
 234:Middlewares/Third_Party/FreeRTOS/portable/MemMang/heap_4.c ****                     {
 471              		.loc 1 234 21 is_stmt 1 view .LVU173
 234:Middlewares/Third_Party/FreeRTOS/portable/MemMang/heap_4.c ****                     {
 472              		.loc 1 234 45 is_stmt 0 view .LVU174
 473 0094 1649     		ldr	r1, .L43+12
 474 0096 0968     		ldr	r1, [r1]
 234:Middlewares/Third_Party/FreeRTOS/portable/MemMang/heap_4.c ****                     {
 475              		.loc 1 234 23 view .LVU175
 476 0098 8B42     		cmp	r3, r1
 477 009a 01D2     		bcs	.L32
 236:Middlewares/Third_Party/FreeRTOS/portable/MemMang/heap_4.c ****                     }
 478              		.loc 1 236 25 is_stmt 1 view .LVU176
 236:Middlewares/Third_Party/FreeRTOS/portable/MemMang/heap_4.c ****                     }
ARM GAS  /tmp/cckNveCu.s 			page 23


 479              		.loc 1 236 56 is_stmt 0 view .LVU177
 480 009c 1449     		ldr	r1, .L43+12
 481 009e 0B60     		str	r3, [r1]
 482              	.L32:
 240:Middlewares/Third_Party/FreeRTOS/portable/MemMang/heap_4.c ****                     }
 483              		.loc 1 240 49 is_stmt 1 view .LVU178
 245:Middlewares/Third_Party/FreeRTOS/portable/MemMang/heap_4.c ****                     pxBlock->pxNextFreeBlock = NULL;
 484              		.loc 1 245 21 view .LVU179
 485 00a0 42F00042 		orr	r2, r2, #-2147483648
 486 00a4 6260     		str	r2, [r4, #4]
 246:Middlewares/Third_Party/FreeRTOS/portable/MemMang/heap_4.c ****                     xNumberOfSuccessfulAllocations++;
 487              		.loc 1 246 21 view .LVU180
 246:Middlewares/Third_Party/FreeRTOS/portable/MemMang/heap_4.c ****                     xNumberOfSuccessfulAllocations++;
 488              		.loc 1 246 46 is_stmt 0 view .LVU181
 489 00a6 0023     		movs	r3, #0
 490 00a8 2360     		str	r3, [r4]
 247:Middlewares/Third_Party/FreeRTOS/portable/MemMang/heap_4.c ****                 }
 491              		.loc 1 247 21 is_stmt 1 view .LVU182
 247:Middlewares/Third_Party/FreeRTOS/portable/MemMang/heap_4.c ****                 }
 492              		.loc 1 247 51 is_stmt 0 view .LVU183
 493 00aa 124A     		ldr	r2, .L43+16
 494 00ac 1368     		ldr	r3, [r2]
 495 00ae 0133     		adds	r3, r3, #1
 496 00b0 1360     		str	r3, [r2]
 497 00b2 02E0     		b	.L26
 498              	.LVL39:
 499              	.L36:
 140:Middlewares/Third_Party/FreeRTOS/portable/MemMang/heap_4.c ****     size_t xAdditionalRequiredSize;
 500              		.loc 1 140 12 view .LVU184
 501 00b4 0026     		movs	r6, #0
 502 00b6 00E0     		b	.L26
 503              	.L37:
 504 00b8 0026     		movs	r6, #0
 505              	.LVL40:
 506              	.L26:
 261:Middlewares/Third_Party/FreeRTOS/portable/MemMang/heap_4.c ****         }
 507              		.loc 1 261 37 is_stmt 1 view .LVU185
 264:Middlewares/Third_Party/FreeRTOS/portable/MemMang/heap_4.c ****     }
 508              		.loc 1 264 45 view .LVU186
 266:Middlewares/Third_Party/FreeRTOS/portable/MemMang/heap_4.c **** 
 509              		.loc 1 266 5 view .LVU187
 266:Middlewares/Third_Party/FreeRTOS/portable/MemMang/heap_4.c **** 
 510              		.loc 1 266 14 is_stmt 0 view .LVU188
 511 00ba FFF7FEFF 		bl	xTaskResumeAll
 512              	.LVL41:
 281:Middlewares/Third_Party/FreeRTOS/portable/MemMang/heap_4.c ****     return pvReturn;
 513              		.loc 1 281 5 is_stmt 1 view .LVU189
 514 00be 16F0070F 		tst	r6, #7
 515 00c2 0CD0     		beq	.L23
 281:Middlewares/Third_Party/FreeRTOS/portable/MemMang/heap_4.c ****     return pvReturn;
 516              		.loc 1 281 5 view .LVU190
 517              	.LBB12:
 518              	.LBI12:
 194:Middlewares/Third_Party/FreeRTOS/portable/GCC/ARM_CM4F/portmacro.h ****     {
 519              		.loc 2 194 34 view .LVU191
 520              	.LBB13:
 196:Middlewares/Third_Party/FreeRTOS/portable/GCC/ARM_CM4F/portmacro.h **** 
ARM GAS  /tmp/cckNveCu.s 			page 24


 521              		.loc 2 196 9 view .LVU192
 522              		.loc 2 198 9 view .LVU193
 523              		.syntax unified
 524              	@ 198 "Middlewares/Third_Party/FreeRTOS/portable/GCC/ARM_CM4F/portmacro.h" 1
 525 00c4 4FF05003 			mov r3, #80												
 526 00c8 83F31188 		msr basepri, r3											
 527 00cc BFF36F8F 		isb														
 528 00d0 BFF34F8F 		dsb														
 529              	
 530              	@ 0 "" 2
 531              	.LVL42:
 532              		.thumb
 533              		.syntax unified
 534              	.L34:
 535              		.loc 2 198 9 is_stmt 0 view .LVU194
 536              	.LBE13:
 537              	.LBE12:
 281:Middlewares/Third_Party/FreeRTOS/portable/MemMang/heap_4.c ****     return pvReturn;
 538              		.loc 1 281 5 is_stmt 1 discriminator 3 view .LVU195
 281:Middlewares/Third_Party/FreeRTOS/portable/MemMang/heap_4.c ****     return pvReturn;
 539              		.loc 1 281 5 discriminator 3 view .LVU196
 281:Middlewares/Third_Party/FreeRTOS/portable/MemMang/heap_4.c ****     return pvReturn;
 540              		.loc 1 281 5 discriminator 3 view .LVU197
 541 00d4 FEE7     		b	.L34
 542              	.LVL43:
 543              	.L38:
 140:Middlewares/Third_Party/FreeRTOS/portable/MemMang/heap_4.c ****     size_t xAdditionalRequiredSize;
 544              		.loc 1 140 12 is_stmt 0 view .LVU198
 545 00d6 0026     		movs	r6, #0
 546 00d8 EFE7     		b	.L26
 547              	.LVL44:
 548              	.L40:
 140:Middlewares/Third_Party/FreeRTOS/portable/MemMang/heap_4.c ****     size_t xAdditionalRequiredSize;
 549              		.loc 1 140 12 view .LVU199
 550 00da 0026     		movs	r6, #0
 551 00dc EDE7     		b	.L26
 552              	.LVL45:
 553              	.L23:
 283:Middlewares/Third_Party/FreeRTOS/portable/MemMang/heap_4.c **** /*-----------------------------------------------------------*/
 554              		.loc 1 283 1 view .LVU200
 555 00de 3046     		mov	r0, r6
 556 00e0 70BD     		pop	{r4, r5, r6, pc}
 557              	.LVL46:
 558              	.L44:
 283:Middlewares/Third_Party/FreeRTOS/portable/MemMang/heap_4.c **** /*-----------------------------------------------------------*/
 559              		.loc 1 283 1 view .LVU201
 560 00e2 00BF     		.align	2
 561              	.L43:
 562 00e4 00000000 		.word	.LANCHOR1
 563 00e8 00000000 		.word	.LANCHOR3
 564 00ec 00000000 		.word	.LANCHOR0
 565 00f0 00000000 		.word	.LANCHOR2
 566 00f4 00000000 		.word	.LANCHOR4
 567              		.cfi_endproc
 568              	.LFE4:
 570              		.section	.text.vPortFree,"ax",%progbits
 571              		.align	1
ARM GAS  /tmp/cckNveCu.s 			page 25


 572              		.global	vPortFree
 573              		.syntax unified
 574              		.thumb
 575              		.thumb_func
 577              	vPortFree:
 578              	.LVL47:
 579              	.LFB5:
 287:Middlewares/Third_Party/FreeRTOS/portable/MemMang/heap_4.c ****     uint8_t * puc = ( uint8_t * ) pv;
 580              		.loc 1 287 1 is_stmt 1 view -0
 581              		.cfi_startproc
 582              		@ args = 0, pretend = 0, frame = 0
 583              		@ frame_needed = 0, uses_anonymous_args = 0
 288:Middlewares/Third_Party/FreeRTOS/portable/MemMang/heap_4.c ****     BlockLink_t * pxLink;
 584              		.loc 1 288 5 view .LVU203
 289:Middlewares/Third_Party/FreeRTOS/portable/MemMang/heap_4.c **** 
 585              		.loc 1 289 5 view .LVU204
 291:Middlewares/Third_Party/FreeRTOS/portable/MemMang/heap_4.c ****     {
 586              		.loc 1 291 5 view .LVU205
 291:Middlewares/Third_Party/FreeRTOS/portable/MemMang/heap_4.c ****     {
 587              		.loc 1 291 7 is_stmt 0 view .LVU206
 588 0000 A8B3     		cbz	r0, .L52
 287:Middlewares/Third_Party/FreeRTOS/portable/MemMang/heap_4.c ****     uint8_t * puc = ( uint8_t * ) pv;
 589              		.loc 1 287 1 view .LVU207
 590 0002 38B5     		push	{r3, r4, r5, lr}
 591              	.LCFI5:
 592              		.cfi_def_cfa_offset 16
 593              		.cfi_offset 3, -16
 594              		.cfi_offset 4, -12
 595              		.cfi_offset 5, -8
 596              		.cfi_offset 14, -4
 597 0004 0446     		mov	r4, r0
 295:Middlewares/Third_Party/FreeRTOS/portable/MemMang/heap_4.c **** 
 598              		.loc 1 295 9 is_stmt 1 view .LVU208
 295:Middlewares/Third_Party/FreeRTOS/portable/MemMang/heap_4.c **** 
 599              		.loc 1 295 13 is_stmt 0 view .LVU209
 600 0006 A0F10805 		sub	r5, r0, #8
 601              	.LVL48:
 298:Middlewares/Third_Party/FreeRTOS/portable/MemMang/heap_4.c **** 
 602              		.loc 1 298 9 is_stmt 1 view .LVU210
 300:Middlewares/Third_Party/FreeRTOS/portable/MemMang/heap_4.c ****         configASSERT( pxLink->pxNextFreeBlock == NULL );
 603              		.loc 1 300 9 view .LVU211
 604 000a 50F8043C 		ldr	r3, [r0, #-4]
 605 000e 002B     		cmp	r3, #0
 606 0010 08DB     		blt	.L47
 300:Middlewares/Third_Party/FreeRTOS/portable/MemMang/heap_4.c ****         configASSERT( pxLink->pxNextFreeBlock == NULL );
 607              		.loc 1 300 9 view .LVU212
 608              	.LBB14:
 609              	.LBI14:
 194:Middlewares/Third_Party/FreeRTOS/portable/GCC/ARM_CM4F/portmacro.h ****     {
 610              		.loc 2 194 34 view .LVU213
 611              	.LBB15:
 196:Middlewares/Third_Party/FreeRTOS/portable/GCC/ARM_CM4F/portmacro.h **** 
 612              		.loc 2 196 9 view .LVU214
 613              		.loc 2 198 9 view .LVU215
 614              		.syntax unified
 615              	@ 198 "Middlewares/Third_Party/FreeRTOS/portable/GCC/ARM_CM4F/portmacro.h" 1
 616 0012 4FF05003 			mov r3, #80												
ARM GAS  /tmp/cckNveCu.s 			page 26


 617 0016 83F31188 		msr basepri, r3											
 618 001a BFF36F8F 		isb														
 619 001e BFF34F8F 		dsb														
 620              	
 621              	@ 0 "" 2
 622              	.LVL49:
 623              		.thumb
 624              		.syntax unified
 625              	.L48:
 626              		.loc 2 198 9 is_stmt 0 view .LVU216
 627              	.LBE15:
 628              	.LBE14:
 300:Middlewares/Third_Party/FreeRTOS/portable/MemMang/heap_4.c ****         configASSERT( pxLink->pxNextFreeBlock == NULL );
 629              		.loc 1 300 9 is_stmt 1 discriminator 1 view .LVU217
 300:Middlewares/Third_Party/FreeRTOS/portable/MemMang/heap_4.c ****         configASSERT( pxLink->pxNextFreeBlock == NULL );
 630              		.loc 1 300 9 discriminator 1 view .LVU218
 300:Middlewares/Third_Party/FreeRTOS/portable/MemMang/heap_4.c ****         configASSERT( pxLink->pxNextFreeBlock == NULL );
 631              		.loc 1 300 9 discriminator 1 view .LVU219
 632 0022 FEE7     		b	.L48
 633              	.L47:
 300:Middlewares/Third_Party/FreeRTOS/portable/MemMang/heap_4.c ****         configASSERT( pxLink->pxNextFreeBlock == NULL );
 634              		.loc 1 300 62 discriminator 2 view .LVU220
 301:Middlewares/Third_Party/FreeRTOS/portable/MemMang/heap_4.c **** 
 635              		.loc 1 301 9 discriminator 2 view .LVU221
 636 0024 50F8082C 		ldr	r2, [r0, #-8]
 637 0028 42B1     		cbz	r2, .L49
 301:Middlewares/Third_Party/FreeRTOS/portable/MemMang/heap_4.c **** 
 638              		.loc 1 301 9 view .LVU222
 639              	.LBB16:
 640              	.LBI16:
 194:Middlewares/Third_Party/FreeRTOS/portable/GCC/ARM_CM4F/portmacro.h ****     {
 641              		.loc 2 194 34 view .LVU223
 642              	.LBB17:
 196:Middlewares/Third_Party/FreeRTOS/portable/GCC/ARM_CM4F/portmacro.h **** 
 643              		.loc 2 196 9 view .LVU224
 644              		.loc 2 198 9 view .LVU225
 645              		.syntax unified
 646              	@ 198 "Middlewares/Third_Party/FreeRTOS/portable/GCC/ARM_CM4F/portmacro.h" 1
 647 002a 4FF05003 			mov r3, #80												
 648 002e 83F31188 		msr basepri, r3											
 649 0032 BFF36F8F 		isb														
 650 0036 BFF34F8F 		dsb														
 651              	
 652              	@ 0 "" 2
 653              	.LVL50:
 654              		.thumb
 655              		.syntax unified
 656              	.L50:
 657              		.loc 2 198 9 is_stmt 0 view .LVU226
 658              	.LBE17:
 659              	.LBE16:
 301:Middlewares/Third_Party/FreeRTOS/portable/MemMang/heap_4.c **** 
 660              		.loc 1 301 9 is_stmt 1 discriminator 2 view .LVU227
 301:Middlewares/Third_Party/FreeRTOS/portable/MemMang/heap_4.c **** 
 661              		.loc 1 301 9 discriminator 2 view .LVU228
 301:Middlewares/Third_Party/FreeRTOS/portable/MemMang/heap_4.c **** 
 662              		.loc 1 301 9 discriminator 2 view .LVU229
ARM GAS  /tmp/cckNveCu.s 			page 27


 663 003a FEE7     		b	.L50
 664              	.L49:
 301:Middlewares/Third_Party/FreeRTOS/portable/MemMang/heap_4.c **** 
 665              		.loc 1 301 56 discriminator 2 view .LVU230
 303:Middlewares/Third_Party/FreeRTOS/portable/MemMang/heap_4.c ****         {
 666              		.loc 1 303 9 discriminator 2 view .LVU231
 303:Middlewares/Third_Party/FreeRTOS/portable/MemMang/heap_4.c ****         {
 667              		.loc 1 303 11 is_stmt 0 discriminator 2 view .LVU232
 668 003c 002B     		cmp	r3, #0
 669 003e 00DB     		blt	.L55
 670              	.LVL51:
 671              	.L45:
 336:Middlewares/Third_Party/FreeRTOS/portable/MemMang/heap_4.c **** /*-----------------------------------------------------------*/
 672              		.loc 1 336 1 view .LVU233
 673 0040 38BD     		pop	{r3, r4, r5, pc}
 674              	.LVL52:
 675              	.L55:
 305:Middlewares/Third_Party/FreeRTOS/portable/MemMang/heap_4.c ****             {
 676              		.loc 1 305 13 is_stmt 1 view .LVU234
 309:Middlewares/Third_Party/FreeRTOS/portable/MemMang/heap_4.c ****                 #if ( configHEAP_CLEAR_MEMORY_ON_FREE == 1 )
 677              		.loc 1 309 17 view .LVU235
 678 0042 23F00043 		bic	r3, r3, #-2147483648
 679 0046 40F8043C 		str	r3, [r0, #-4]
 316:Middlewares/Third_Party/FreeRTOS/portable/MemMang/heap_4.c ****                 {
 680              		.loc 1 316 17 view .LVU236
 681 004a FFF7FEFF 		bl	vTaskSuspendAll
 682              	.LVL53:
 319:Middlewares/Third_Party/FreeRTOS/portable/MemMang/heap_4.c ****                     traceFREE( pv, pxLink->xBlockSize );
 683              		.loc 1 319 21 view .LVU237
 319:Middlewares/Third_Party/FreeRTOS/portable/MemMang/heap_4.c ****                     traceFREE( pv, pxLink->xBlockSize );
 684              		.loc 1 319 50 is_stmt 0 view .LVU238
 685 004e 54F8041C 		ldr	r1, [r4, #-4]
 319:Middlewares/Third_Party/FreeRTOS/portable/MemMang/heap_4.c ****                     traceFREE( pv, pxLink->xBlockSize );
 686              		.loc 1 319 41 view .LVU239
 687 0052 074A     		ldr	r2, .L56
 688 0054 1368     		ldr	r3, [r2]
 689 0056 0B44     		add	r3, r3, r1
 690 0058 1360     		str	r3, [r2]
 320:Middlewares/Third_Party/FreeRTOS/portable/MemMang/heap_4.c ****                     prvInsertBlockIntoFreeList( ( ( BlockLink_t * ) pxLink ) );
 691              		.loc 1 320 56 is_stmt 1 view .LVU240
 321:Middlewares/Third_Party/FreeRTOS/portable/MemMang/heap_4.c ****                     xNumberOfSuccessfulFrees++;
 692              		.loc 1 321 21 view .LVU241
 693 005a 2846     		mov	r0, r5
 694 005c FFF7FEFF 		bl	prvInsertBlockIntoFreeList
 695              	.LVL54:
 322:Middlewares/Third_Party/FreeRTOS/portable/MemMang/heap_4.c ****                 }
 696              		.loc 1 322 21 view .LVU242
 322:Middlewares/Third_Party/FreeRTOS/portable/MemMang/heap_4.c ****                 }
 697              		.loc 1 322 45 is_stmt 0 view .LVU243
 698 0060 044A     		ldr	r2, .L56+4
 699 0062 1368     		ldr	r3, [r2]
 700 0064 0133     		adds	r3, r3, #1
 701 0066 1360     		str	r3, [r2]
 324:Middlewares/Third_Party/FreeRTOS/portable/MemMang/heap_4.c ****             }
 702              		.loc 1 324 17 is_stmt 1 view .LVU244
 324:Middlewares/Third_Party/FreeRTOS/portable/MemMang/heap_4.c ****             }
 703              		.loc 1 324 26 is_stmt 0 view .LVU245
ARM GAS  /tmp/cckNveCu.s 			page 28


 704 0068 FFF7FEFF 		bl	xTaskResumeAll
 705              	.LVL55:
 333:Middlewares/Third_Party/FreeRTOS/portable/MemMang/heap_4.c ****         }
 706              		.loc 1 333 37 is_stmt 1 view .LVU246
 336:Middlewares/Third_Party/FreeRTOS/portable/MemMang/heap_4.c **** /*-----------------------------------------------------------*/
 707              		.loc 1 336 1 is_stmt 0 view .LVU247
 708 006c E8E7     		b	.L45
 709              	.LVL56:
 710              	.L52:
 711              	.LCFI6:
 712              		.cfi_def_cfa_offset 0
 713              		.cfi_restore 3
 714              		.cfi_restore 4
 715              		.cfi_restore 5
 716              		.cfi_restore 14
 336:Middlewares/Third_Party/FreeRTOS/portable/MemMang/heap_4.c **** /*-----------------------------------------------------------*/
 717              		.loc 1 336 1 view .LVU248
 718 006e 7047     		bx	lr
 719              	.L57:
 720              		.align	2
 721              	.L56:
 722 0070 00000000 		.word	.LANCHOR3
 723 0074 00000000 		.word	.LANCHOR5
 724              		.cfi_endproc
 725              	.LFE5:
 727              		.section	.text.xPortGetFreeHeapSize,"ax",%progbits
 728              		.align	1
 729              		.global	xPortGetFreeHeapSize
 730              		.syntax unified
 731              		.thumb
 732              		.thumb_func
 734              	xPortGetFreeHeapSize:
 735              	.LFB6:
 340:Middlewares/Third_Party/FreeRTOS/portable/MemMang/heap_4.c ****     return xFreeBytesRemaining;
 736              		.loc 1 340 1 is_stmt 1 view -0
 737              		.cfi_startproc
 738              		@ args = 0, pretend = 0, frame = 0
 739              		@ frame_needed = 0, uses_anonymous_args = 0
 740              		@ link register save eliminated.
 341:Middlewares/Third_Party/FreeRTOS/portable/MemMang/heap_4.c **** }
 741              		.loc 1 341 5 view .LVU250
 342:Middlewares/Third_Party/FreeRTOS/portable/MemMang/heap_4.c **** /*-----------------------------------------------------------*/
 742              		.loc 1 342 1 is_stmt 0 view .LVU251
 743 0000 014B     		ldr	r3, .L59
 744 0002 1868     		ldr	r0, [r3]
 745 0004 7047     		bx	lr
 746              	.L60:
 747 0006 00BF     		.align	2
 748              	.L59:
 749 0008 00000000 		.word	.LANCHOR3
 750              		.cfi_endproc
 751              	.LFE6:
 753              		.section	.text.xPortGetMinimumEverFreeHeapSize,"ax",%progbits
 754              		.align	1
 755              		.global	xPortGetMinimumEverFreeHeapSize
 756              		.syntax unified
 757              		.thumb
ARM GAS  /tmp/cckNveCu.s 			page 29


 758              		.thumb_func
 760              	xPortGetMinimumEverFreeHeapSize:
 761              	.LFB7:
 346:Middlewares/Third_Party/FreeRTOS/portable/MemMang/heap_4.c ****     return xMinimumEverFreeBytesRemaining;
 762              		.loc 1 346 1 is_stmt 1 view -0
 763              		.cfi_startproc
 764              		@ args = 0, pretend = 0, frame = 0
 765              		@ frame_needed = 0, uses_anonymous_args = 0
 766              		@ link register save eliminated.
 347:Middlewares/Third_Party/FreeRTOS/portable/MemMang/heap_4.c **** }
 767              		.loc 1 347 5 view .LVU253
 348:Middlewares/Third_Party/FreeRTOS/portable/MemMang/heap_4.c **** /*-----------------------------------------------------------*/
 768              		.loc 1 348 1 is_stmt 0 view .LVU254
 769 0000 014B     		ldr	r3, .L62
 770 0002 1868     		ldr	r0, [r3]
 771 0004 7047     		bx	lr
 772              	.L63:
 773 0006 00BF     		.align	2
 774              	.L62:
 775 0008 00000000 		.word	.LANCHOR2
 776              		.cfi_endproc
 777              	.LFE7:
 779              		.section	.text.vPortInitialiseBlocks,"ax",%progbits
 780              		.align	1
 781              		.global	vPortInitialiseBlocks
 782              		.syntax unified
 783              		.thumb
 784              		.thumb_func
 786              	vPortInitialiseBlocks:
 787              	.LFB8:
 352:Middlewares/Third_Party/FreeRTOS/portable/MemMang/heap_4.c ****     /* This just exists to keep the linker quiet. */
 788              		.loc 1 352 1 is_stmt 1 view -0
 789              		.cfi_startproc
 790              		@ args = 0, pretend = 0, frame = 0
 791              		@ frame_needed = 0, uses_anonymous_args = 0
 792              		@ link register save eliminated.
 354:Middlewares/Third_Party/FreeRTOS/portable/MemMang/heap_4.c **** /*-----------------------------------------------------------*/
 793              		.loc 1 354 1 view .LVU256
 794 0000 7047     		bx	lr
 795              		.cfi_endproc
 796              	.LFE8:
 798              		.section	.text.pvPortCalloc,"ax",%progbits
 799              		.align	1
 800              		.global	pvPortCalloc
 801              		.syntax unified
 802              		.thumb
 803              		.thumb_func
 805              	pvPortCalloc:
 806              	.LVL57:
 807              	.LFB9:
 359:Middlewares/Third_Party/FreeRTOS/portable/MemMang/heap_4.c ****     void * pv = NULL;
 808              		.loc 1 359 1 view -0
 809              		.cfi_startproc
 810              		@ args = 0, pretend = 0, frame = 0
 811              		@ frame_needed = 0, uses_anonymous_args = 0
 359:Middlewares/Third_Party/FreeRTOS/portable/MemMang/heap_4.c ****     void * pv = NULL;
 812              		.loc 1 359 1 is_stmt 0 view .LVU258
ARM GAS  /tmp/cckNveCu.s 			page 30


 813 0000 38B5     		push	{r3, r4, r5, lr}
 814              	.LCFI7:
 815              		.cfi_def_cfa_offset 16
 816              		.cfi_offset 3, -16
 817              		.cfi_offset 4, -12
 818              		.cfi_offset 5, -8
 819              		.cfi_offset 14, -4
 360:Middlewares/Third_Party/FreeRTOS/portable/MemMang/heap_4.c **** 
 820              		.loc 1 360 5 is_stmt 1 view .LVU259
 821              	.LVL58:
 362:Middlewares/Third_Party/FreeRTOS/portable/MemMang/heap_4.c ****     {
 822              		.loc 1 362 5 view .LVU260
 362:Middlewares/Third_Party/FreeRTOS/portable/MemMang/heap_4.c ****     {
 823              		.loc 1 362 9 is_stmt 0 view .LVU261
 824 0002 0346     		mov	r3, r0
 825 0004 20B1     		cbz	r0, .L66
 826 0006 0022     		movs	r2, #0
 827 0008 A0FB0140 		umull	r4, r0, r0, r1
 828              	.LVL59:
 362:Middlewares/Third_Party/FreeRTOS/portable/MemMang/heap_4.c ****     {
 829              		.loc 1 362 9 view .LVU262
 830 000c 68B9     		cbnz	r0, .L72
 831              	.L67:
 362:Middlewares/Third_Party/FreeRTOS/portable/MemMang/heap_4.c ****     {
 832              		.loc 1 362 9 discriminator 1 view .LVU263
 833 000e 72B9     		cbnz	r2, .L70
 834              	.L66:
 364:Middlewares/Third_Party/FreeRTOS/portable/MemMang/heap_4.c **** 
 835              		.loc 1 364 9 is_stmt 1 view .LVU264
 364:Middlewares/Third_Party/FreeRTOS/portable/MemMang/heap_4.c **** 
 836              		.loc 1 364 14 is_stmt 0 view .LVU265
 837 0010 01FB03F4 		mul	r4, r1, r3
 838 0014 2046     		mov	r0, r4
 839 0016 FFF7FEFF 		bl	pvPortMalloc
 840              	.LVL60:
 366:Middlewares/Third_Party/FreeRTOS/portable/MemMang/heap_4.c ****         {
 841              		.loc 1 366 9 is_stmt 1 view .LVU266
 366:Middlewares/Third_Party/FreeRTOS/portable/MemMang/heap_4.c ****         {
 842              		.loc 1 366 11 is_stmt 0 view .LVU267
 843 001a 0546     		mov	r5, r0
 844 001c 18B1     		cbz	r0, .L65
 368:Middlewares/Third_Party/FreeRTOS/portable/MemMang/heap_4.c ****         }
 845              		.loc 1 368 13 is_stmt 1 view .LVU268
 368:Middlewares/Third_Party/FreeRTOS/portable/MemMang/heap_4.c ****         }
 846              		.loc 1 368 22 is_stmt 0 view .LVU269
 847 001e 2246     		mov	r2, r4
 848 0020 0021     		movs	r1, #0
 849 0022 FFF7FEFF 		bl	memset
 850              	.LVL61:
 851              	.L65:
 373:Middlewares/Third_Party/FreeRTOS/portable/MemMang/heap_4.c **** /*-----------------------------------------------------------*/
 852              		.loc 1 373 1 view .LVU270
 853 0026 2846     		mov	r0, r5
 854 0028 38BD     		pop	{r3, r4, r5, pc}
 855              	.LVL62:
 856              	.L72:
 373:Middlewares/Third_Party/FreeRTOS/portable/MemMang/heap_4.c **** /*-----------------------------------------------------------*/
ARM GAS  /tmp/cckNveCu.s 			page 31


 857              		.loc 1 373 1 view .LVU271
 858 002a 0122     		movs	r2, #1
 859 002c EFE7     		b	.L67
 860              	.L70:
 360:Middlewares/Third_Party/FreeRTOS/portable/MemMang/heap_4.c **** 
 861              		.loc 1 360 12 view .LVU272
 862 002e 0025     		movs	r5, #0
 372:Middlewares/Third_Party/FreeRTOS/portable/MemMang/heap_4.c **** }
 863              		.loc 1 372 5 is_stmt 1 view .LVU273
 372:Middlewares/Third_Party/FreeRTOS/portable/MemMang/heap_4.c **** }
 864              		.loc 1 372 12 is_stmt 0 view .LVU274
 865 0030 F9E7     		b	.L65
 866              		.cfi_endproc
 867              	.LFE9:
 869              		.section	.text.vPortGetHeapStats,"ax",%progbits
 870              		.align	1
 871              		.global	vPortGetHeapStats
 872              		.syntax unified
 873              		.thumb
 874              		.thumb_func
 876              	vPortGetHeapStats:
 877              	.LVL63:
 878              	.LFB12:
 482:Middlewares/Third_Party/FreeRTOS/portable/MemMang/heap_4.c **** /*-----------------------------------------------------------*/
 483:Middlewares/Third_Party/FreeRTOS/portable/MemMang/heap_4.c **** 
 484:Middlewares/Third_Party/FreeRTOS/portable/MemMang/heap_4.c **** void vPortGetHeapStats( HeapStats_t * pxHeapStats )
 485:Middlewares/Third_Party/FreeRTOS/portable/MemMang/heap_4.c **** {
 879              		.loc 1 485 1 is_stmt 1 view -0
 880              		.cfi_startproc
 881              		@ args = 0, pretend = 0, frame = 0
 882              		@ frame_needed = 0, uses_anonymous_args = 0
 883              		.loc 1 485 1 is_stmt 0 view .LVU276
 884 0000 F8B5     		push	{r3, r4, r5, r6, r7, lr}
 885              	.LCFI8:
 886              		.cfi_def_cfa_offset 24
 887              		.cfi_offset 3, -24
 888              		.cfi_offset 4, -20
 889              		.cfi_offset 5, -16
 890              		.cfi_offset 6, -12
 891              		.cfi_offset 7, -8
 892              		.cfi_offset 14, -4
 893 0002 0746     		mov	r7, r0
 486:Middlewares/Third_Party/FreeRTOS/portable/MemMang/heap_4.c ****     BlockLink_t * pxBlock;
 894              		.loc 1 486 5 is_stmt 1 view .LVU277
 487:Middlewares/Third_Party/FreeRTOS/portable/MemMang/heap_4.c ****     size_t xBlocks = 0, xMaxSize = 0, xMinSize = portMAX_DELAY; /* portMAX_DELAY used as a portable
 895              		.loc 1 487 5 view .LVU278
 896              	.LVL64:
 488:Middlewares/Third_Party/FreeRTOS/portable/MemMang/heap_4.c **** 
 489:Middlewares/Third_Party/FreeRTOS/portable/MemMang/heap_4.c ****     vTaskSuspendAll();
 897              		.loc 1 489 5 view .LVU279
 898 0004 FFF7FEFF 		bl	vTaskSuspendAll
 899              	.LVL65:
 490:Middlewares/Third_Party/FreeRTOS/portable/MemMang/heap_4.c ****     {
 491:Middlewares/Third_Party/FreeRTOS/portable/MemMang/heap_4.c ****         pxBlock = xStart.pxNextFreeBlock;
 900              		.loc 1 491 9 view .LVU280
 901              		.loc 1 491 17 is_stmt 0 view .LVU281
 902 0008 174B     		ldr	r3, .L84
ARM GAS  /tmp/cckNveCu.s 			page 32


 903 000a 1B68     		ldr	r3, [r3]
 904              	.LVL66:
 492:Middlewares/Third_Party/FreeRTOS/portable/MemMang/heap_4.c **** 
 493:Middlewares/Third_Party/FreeRTOS/portable/MemMang/heap_4.c ****         /* pxBlock will be NULL if the heap has not been initialised.  The heap
 494:Middlewares/Third_Party/FreeRTOS/portable/MemMang/heap_4.c ****          * is initialised automatically when the first allocation is made. */
 495:Middlewares/Third_Party/FreeRTOS/portable/MemMang/heap_4.c ****         if( pxBlock != NULL )
 905              		.loc 1 495 9 is_stmt 1 view .LVU282
 906              		.loc 1 495 11 is_stmt 0 view .LVU283
 907 000c 23B1     		cbz	r3, .L83
 487:Middlewares/Third_Party/FreeRTOS/portable/MemMang/heap_4.c **** 
 908              		.loc 1 487 39 view .LVU284
 909 000e 4FF0FF36 		mov	r6, #-1
 487:Middlewares/Third_Party/FreeRTOS/portable/MemMang/heap_4.c **** 
 910              		.loc 1 487 25 view .LVU285
 911 0012 0025     		movs	r5, #0
 487:Middlewares/Third_Party/FreeRTOS/portable/MemMang/heap_4.c **** 
 912              		.loc 1 487 12 view .LVU286
 913 0014 2C46     		mov	r4, r5
 914 0016 1AE0     		b	.L74
 915              	.L83:
 487:Middlewares/Third_Party/FreeRTOS/portable/MemMang/heap_4.c **** 
 916              		.loc 1 487 39 view .LVU287
 917 0018 4FF0FF36 		mov	r6, #-1
 487:Middlewares/Third_Party/FreeRTOS/portable/MemMang/heap_4.c **** 
 918              		.loc 1 487 25 view .LVU288
 919 001c 0025     		movs	r5, #0
 487:Middlewares/Third_Party/FreeRTOS/portable/MemMang/heap_4.c **** 
 920              		.loc 1 487 12 view .LVU289
 921 001e 2C46     		mov	r4, r5
 922              	.LVL67:
 923              	.L75:
 496:Middlewares/Third_Party/FreeRTOS/portable/MemMang/heap_4.c ****         {
 497:Middlewares/Third_Party/FreeRTOS/portable/MemMang/heap_4.c ****             while( pxBlock != pxEnd )
 498:Middlewares/Third_Party/FreeRTOS/portable/MemMang/heap_4.c ****             {
 499:Middlewares/Third_Party/FreeRTOS/portable/MemMang/heap_4.c ****                 /* Increment the number of blocks and record the largest block seen
 500:Middlewares/Third_Party/FreeRTOS/portable/MemMang/heap_4.c ****                  * so far. */
 501:Middlewares/Third_Party/FreeRTOS/portable/MemMang/heap_4.c ****                 xBlocks++;
 502:Middlewares/Third_Party/FreeRTOS/portable/MemMang/heap_4.c **** 
 503:Middlewares/Third_Party/FreeRTOS/portable/MemMang/heap_4.c ****                 if( pxBlock->xBlockSize > xMaxSize )
 504:Middlewares/Third_Party/FreeRTOS/portable/MemMang/heap_4.c ****                 {
 505:Middlewares/Third_Party/FreeRTOS/portable/MemMang/heap_4.c ****                     xMaxSize = pxBlock->xBlockSize;
 506:Middlewares/Third_Party/FreeRTOS/portable/MemMang/heap_4.c ****                 }
 507:Middlewares/Third_Party/FreeRTOS/portable/MemMang/heap_4.c **** 
 508:Middlewares/Third_Party/FreeRTOS/portable/MemMang/heap_4.c ****                 if( pxBlock->xBlockSize < xMinSize )
 509:Middlewares/Third_Party/FreeRTOS/portable/MemMang/heap_4.c ****                 {
 510:Middlewares/Third_Party/FreeRTOS/portable/MemMang/heap_4.c ****                     xMinSize = pxBlock->xBlockSize;
 511:Middlewares/Third_Party/FreeRTOS/portable/MemMang/heap_4.c ****                 }
 512:Middlewares/Third_Party/FreeRTOS/portable/MemMang/heap_4.c **** 
 513:Middlewares/Third_Party/FreeRTOS/portable/MemMang/heap_4.c ****                 /* Move to the next block in the chain until the last block is
 514:Middlewares/Third_Party/FreeRTOS/portable/MemMang/heap_4.c ****                  * reached. */
 515:Middlewares/Third_Party/FreeRTOS/portable/MemMang/heap_4.c ****                 pxBlock = pxBlock->pxNextFreeBlock;
 516:Middlewares/Third_Party/FreeRTOS/portable/MemMang/heap_4.c ****             }
 517:Middlewares/Third_Party/FreeRTOS/portable/MemMang/heap_4.c ****         }
 518:Middlewares/Third_Party/FreeRTOS/portable/MemMang/heap_4.c ****     }
 519:Middlewares/Third_Party/FreeRTOS/portable/MemMang/heap_4.c ****     ( void ) xTaskResumeAll();
 924              		.loc 1 519 5 is_stmt 1 view .LVU290
 925              		.loc 1 519 14 is_stmt 0 view .LVU291
ARM GAS  /tmp/cckNveCu.s 			page 33


 926 0020 FFF7FEFF 		bl	xTaskResumeAll
 927              	.LVL68:
 520:Middlewares/Third_Party/FreeRTOS/portable/MemMang/heap_4.c **** 
 521:Middlewares/Third_Party/FreeRTOS/portable/MemMang/heap_4.c ****     pxHeapStats->xSizeOfLargestFreeBlockInBytes = xMaxSize;
 928              		.loc 1 521 5 is_stmt 1 view .LVU292
 929              		.loc 1 521 49 is_stmt 0 view .LVU293
 930 0024 7D60     		str	r5, [r7, #4]
 522:Middlewares/Third_Party/FreeRTOS/portable/MemMang/heap_4.c ****     pxHeapStats->xSizeOfSmallestFreeBlockInBytes = xMinSize;
 931              		.loc 1 522 5 is_stmt 1 view .LVU294
 932              		.loc 1 522 50 is_stmt 0 view .LVU295
 933 0026 BE60     		str	r6, [r7, #8]
 523:Middlewares/Third_Party/FreeRTOS/portable/MemMang/heap_4.c ****     pxHeapStats->xNumberOfFreeBlocks = xBlocks;
 934              		.loc 1 523 5 is_stmt 1 view .LVU296
 935              		.loc 1 523 38 is_stmt 0 view .LVU297
 936 0028 FC60     		str	r4, [r7, #12]
 524:Middlewares/Third_Party/FreeRTOS/portable/MemMang/heap_4.c **** 
 525:Middlewares/Third_Party/FreeRTOS/portable/MemMang/heap_4.c ****     taskENTER_CRITICAL();
 937              		.loc 1 525 5 is_stmt 1 view .LVU298
 938 002a FFF7FEFF 		bl	vPortEnterCritical
 939              	.LVL69:
 526:Middlewares/Third_Party/FreeRTOS/portable/MemMang/heap_4.c ****     {
 527:Middlewares/Third_Party/FreeRTOS/portable/MemMang/heap_4.c ****         pxHeapStats->xAvailableHeapSpaceInBytes = xFreeBytesRemaining;
 940              		.loc 1 527 9 view .LVU299
 941              		.loc 1 527 49 is_stmt 0 view .LVU300
 942 002e 0F4B     		ldr	r3, .L84+4
 943 0030 1B68     		ldr	r3, [r3]
 944 0032 3B60     		str	r3, [r7]
 528:Middlewares/Third_Party/FreeRTOS/portable/MemMang/heap_4.c ****         pxHeapStats->xNumberOfSuccessfulAllocations = xNumberOfSuccessfulAllocations;
 945              		.loc 1 528 9 is_stmt 1 view .LVU301
 946              		.loc 1 528 53 is_stmt 0 view .LVU302
 947 0034 0E4B     		ldr	r3, .L84+8
 948 0036 1B68     		ldr	r3, [r3]
 949 0038 7B61     		str	r3, [r7, #20]
 529:Middlewares/Third_Party/FreeRTOS/portable/MemMang/heap_4.c ****         pxHeapStats->xNumberOfSuccessfulFrees = xNumberOfSuccessfulFrees;
 950              		.loc 1 529 9 is_stmt 1 view .LVU303
 951              		.loc 1 529 47 is_stmt 0 view .LVU304
 952 003a 0E4B     		ldr	r3, .L84+12
 953 003c 1B68     		ldr	r3, [r3]
 954 003e BB61     		str	r3, [r7, #24]
 530:Middlewares/Third_Party/FreeRTOS/portable/MemMang/heap_4.c ****         pxHeapStats->xMinimumEverFreeBytesRemaining = xMinimumEverFreeBytesRemaining;
 955              		.loc 1 530 9 is_stmt 1 view .LVU305
 956              		.loc 1 530 53 is_stmt 0 view .LVU306
 957 0040 0D4B     		ldr	r3, .L84+16
 958 0042 1B68     		ldr	r3, [r3]
 959 0044 3B61     		str	r3, [r7, #16]
 531:Middlewares/Third_Party/FreeRTOS/portable/MemMang/heap_4.c ****     }
 532:Middlewares/Third_Party/FreeRTOS/portable/MemMang/heap_4.c ****     taskEXIT_CRITICAL();
 960              		.loc 1 532 5 is_stmt 1 view .LVU307
 961 0046 FFF7FEFF 		bl	vPortExitCritical
 962              	.LVL70:
 533:Middlewares/Third_Party/FreeRTOS/portable/MemMang/heap_4.c **** }
 963              		.loc 1 533 1 is_stmt 0 view .LVU308
 964 004a F8BD     		pop	{r3, r4, r5, r6, r7, pc}
 965              	.LVL71:
 966              	.L77:
 515:Middlewares/Third_Party/FreeRTOS/portable/MemMang/heap_4.c ****             }
 967              		.loc 1 515 17 is_stmt 1 view .LVU309
ARM GAS  /tmp/cckNveCu.s 			page 34


 515:Middlewares/Third_Party/FreeRTOS/portable/MemMang/heap_4.c ****             }
 968              		.loc 1 515 25 is_stmt 0 view .LVU310
 969 004c 1B68     		ldr	r3, [r3]
 970              	.LVL72:
 971              	.L74:
 497:Middlewares/Third_Party/FreeRTOS/portable/MemMang/heap_4.c ****             {
 972              		.loc 1 497 18 is_stmt 1 view .LVU311
 497:Middlewares/Third_Party/FreeRTOS/portable/MemMang/heap_4.c ****             {
 973              		.loc 1 497 28 is_stmt 0 view .LVU312
 974 004e 0B4A     		ldr	r2, .L84+20
 975 0050 1268     		ldr	r2, [r2]
 497:Middlewares/Third_Party/FreeRTOS/portable/MemMang/heap_4.c ****             {
 976              		.loc 1 497 18 view .LVU313
 977 0052 9A42     		cmp	r2, r3
 978 0054 E4D0     		beq	.L75
 501:Middlewares/Third_Party/FreeRTOS/portable/MemMang/heap_4.c **** 
 979              		.loc 1 501 17 is_stmt 1 view .LVU314
 501:Middlewares/Third_Party/FreeRTOS/portable/MemMang/heap_4.c **** 
 980              		.loc 1 501 24 is_stmt 0 view .LVU315
 981 0056 0134     		adds	r4, r4, #1
 982              	.LVL73:
 503:Middlewares/Third_Party/FreeRTOS/portable/MemMang/heap_4.c ****                 {
 983              		.loc 1 503 17 is_stmt 1 view .LVU316
 503:Middlewares/Third_Party/FreeRTOS/portable/MemMang/heap_4.c ****                 {
 984              		.loc 1 503 28 is_stmt 0 view .LVU317
 985 0058 5A68     		ldr	r2, [r3, #4]
 503:Middlewares/Third_Party/FreeRTOS/portable/MemMang/heap_4.c ****                 {
 986              		.loc 1 503 19 view .LVU318
 987 005a AA42     		cmp	r2, r5
 988 005c 00D9     		bls	.L76
 505:Middlewares/Third_Party/FreeRTOS/portable/MemMang/heap_4.c ****                 }
 989              		.loc 1 505 30 view .LVU319
 990 005e 1546     		mov	r5, r2
 991              	.LVL74:
 992              	.L76:
 508:Middlewares/Third_Party/FreeRTOS/portable/MemMang/heap_4.c ****                 {
 993              		.loc 1 508 17 is_stmt 1 view .LVU320
 508:Middlewares/Third_Party/FreeRTOS/portable/MemMang/heap_4.c ****                 {
 994              		.loc 1 508 19 is_stmt 0 view .LVU321
 995 0060 B242     		cmp	r2, r6
 996 0062 F3D2     		bcs	.L77
 510:Middlewares/Third_Party/FreeRTOS/portable/MemMang/heap_4.c ****                 }
 997              		.loc 1 510 30 view .LVU322
 998 0064 1646     		mov	r6, r2
 999              	.LVL75:
 510:Middlewares/Third_Party/FreeRTOS/portable/MemMang/heap_4.c ****                 }
 1000              		.loc 1 510 30 view .LVU323
 1001 0066 F1E7     		b	.L77
 1002              	.L85:
 1003              		.align	2
 1004              	.L84:
 1005 0068 00000000 		.word	.LANCHOR0
 1006 006c 00000000 		.word	.LANCHOR3
 1007 0070 00000000 		.word	.LANCHOR4
 1008 0074 00000000 		.word	.LANCHOR5
 1009 0078 00000000 		.word	.LANCHOR2
 1010 007c 00000000 		.word	.LANCHOR1
ARM GAS  /tmp/cckNveCu.s 			page 35


 1011              		.cfi_endproc
 1012              	.LFE12:
 1014              		.section	.bss.pxEnd,"aw",%nobits
 1015              		.align	2
 1016              		.set	.LANCHOR1,. + 0
 1019              	pxEnd:
 1020 0000 00000000 		.space	4
 1021              		.section	.bss.ucHeap,"aw",%nobits
 1022              		.align	2
 1025              	ucHeap:
 1026 0000 00000000 		.space	76800
 1026      00000000 
 1026      00000000 
 1026      00000000 
 1026      00000000 
 1027              		.section	.bss.xFreeBytesRemaining,"aw",%nobits
 1028              		.align	2
 1029              		.set	.LANCHOR3,. + 0
 1032              	xFreeBytesRemaining:
 1033 0000 00000000 		.space	4
 1034              		.section	.bss.xMinimumEverFreeBytesRemaining,"aw",%nobits
 1035              		.align	2
 1036              		.set	.LANCHOR2,. + 0
 1039              	xMinimumEverFreeBytesRemaining:
 1040 0000 00000000 		.space	4
 1041              		.section	.bss.xNumberOfSuccessfulAllocations,"aw",%nobits
 1042              		.align	2
 1043              		.set	.LANCHOR4,. + 0
 1046              	xNumberOfSuccessfulAllocations:
 1047 0000 00000000 		.space	4
 1048              		.section	.bss.xNumberOfSuccessfulFrees,"aw",%nobits
 1049              		.align	2
 1050              		.set	.LANCHOR5,. + 0
 1053              	xNumberOfSuccessfulFrees:
 1054 0000 00000000 		.space	4
 1055              		.section	.bss.xStart,"aw",%nobits
 1056              		.align	2
 1057              		.set	.LANCHOR0,. + 0
 1060              	xStart:
 1061 0000 00000000 		.space	8
 1061      00000000 
 1062              		.text
 1063              	.Letext0:
 1064              		.file 3 "/home/joseluiz/Programs/gcc-arm-none-eabi-10.3-2021.10-x86_64-linux/lib/gcc/arm-none-eabi
 1065              		.file 4 "/home/joseluiz/Programs/gcc-arm-none-eabi-10.3-2021.10-x86_64-linux/arm-none-eabi/include
 1066              		.file 5 "/home/joseluiz/Programs/gcc-arm-none-eabi-10.3-2021.10-x86_64-linux/arm-none-eabi/include
 1067              		.file 6 "Middlewares/Third_Party/FreeRTOS/include/portable.h"
 1068              		.file 7 "Middlewares/Third_Party/FreeRTOS/include/task.h"
 1069              		.file 8 "<built-in>"
ARM GAS  /tmp/cckNveCu.s 			page 36

