ARM GAS  /tmp/cczOCZPL.s 			page 1


   1              		.cpu cortex-m7
   2              		.arch armv7e-m
   3              		.fpu fpv5-d16
   4              		.eabi_attribute 28, 1
   5              		.eabi_attribute 20, 1
   6              		.eabi_attribute 21, 1
   7              		.eabi_attribute 23, 3
   8              		.eabi_attribute 24, 1
   9              		.eabi_attribute 25, 1
  10              		.eabi_attribute 26, 1
  11              		.eabi_attribute 30, 1
  12              		.eabi_attribute 34, 1
  13              		.eabi_attribute 18, 4
  14              		.file	"stm32h7xx_hal_timebase_tim.c"
  15              		.text
  16              	.Ltext0:
  17              		.cfi_sections	.debug_frame
  18              		.section	.text.HAL_InitTick,"ax",%progbits
  19              		.align	1
  20              		.global	HAL_InitTick
  21              		.syntax unified
  22              		.thumb
  23              		.thumb_func
  25              	HAL_InitTick:
  26              	.LVL0:
  27              	.LFB141:
  28              		.file 1 "Src/stm32h7xx_hal_timebase_tim.c"
   1:Src/stm32h7xx_hal_timebase_tim.c **** /* USER CODE BEGIN Header */
   2:Src/stm32h7xx_hal_timebase_tim.c **** /**
   3:Src/stm32h7xx_hal_timebase_tim.c ****   ******************************************************************************
   4:Src/stm32h7xx_hal_timebase_tim.c ****   * @file    stm32h7xx_hal_timebase_TIM.c
   5:Src/stm32h7xx_hal_timebase_tim.c ****   * @brief   HAL time base based on the hardware TIM.
   6:Src/stm32h7xx_hal_timebase_tim.c ****   ******************************************************************************
   7:Src/stm32h7xx_hal_timebase_tim.c ****   * @attention
   8:Src/stm32h7xx_hal_timebase_tim.c ****   *
   9:Src/stm32h7xx_hal_timebase_tim.c ****   * Copyright (c) 2022 STMicroelectronics.
  10:Src/stm32h7xx_hal_timebase_tim.c ****   * All rights reserved.
  11:Src/stm32h7xx_hal_timebase_tim.c ****   *
  12:Src/stm32h7xx_hal_timebase_tim.c ****   * This software is licensed under terms that can be found in the LICENSE file
  13:Src/stm32h7xx_hal_timebase_tim.c ****   * in the root directory of this software component.
  14:Src/stm32h7xx_hal_timebase_tim.c ****   * If no LICENSE file comes with this software, it is provided AS-IS.
  15:Src/stm32h7xx_hal_timebase_tim.c ****   *
  16:Src/stm32h7xx_hal_timebase_tim.c ****   ******************************************************************************
  17:Src/stm32h7xx_hal_timebase_tim.c ****   */
  18:Src/stm32h7xx_hal_timebase_tim.c **** /* USER CODE END Header */
  19:Src/stm32h7xx_hal_timebase_tim.c **** 
  20:Src/stm32h7xx_hal_timebase_tim.c **** /* Includes ------------------------------------------------------------------*/
  21:Src/stm32h7xx_hal_timebase_tim.c **** #include "stm32h7xx_hal.h"
  22:Src/stm32h7xx_hal_timebase_tim.c **** #include "stm32h7xx_hal_tim.h"
  23:Src/stm32h7xx_hal_timebase_tim.c **** 
  24:Src/stm32h7xx_hal_timebase_tim.c **** /* Private typedef -----------------------------------------------------------*/
  25:Src/stm32h7xx_hal_timebase_tim.c **** /* Private define ------------------------------------------------------------*/
  26:Src/stm32h7xx_hal_timebase_tim.c **** /* Private macro -------------------------------------------------------------*/
  27:Src/stm32h7xx_hal_timebase_tim.c **** /* Private variables ---------------------------------------------------------*/
  28:Src/stm32h7xx_hal_timebase_tim.c **** TIM_HandleTypeDef        htim1;
  29:Src/stm32h7xx_hal_timebase_tim.c **** /* Private function prototypes -----------------------------------------------*/
  30:Src/stm32h7xx_hal_timebase_tim.c **** /* Private functions ---------------------------------------------------------*/
ARM GAS  /tmp/cczOCZPL.s 			page 2


  31:Src/stm32h7xx_hal_timebase_tim.c **** 
  32:Src/stm32h7xx_hal_timebase_tim.c **** /**
  33:Src/stm32h7xx_hal_timebase_tim.c ****   * @brief  This function configures the TIM1 as a time base source.
  34:Src/stm32h7xx_hal_timebase_tim.c ****   *         The time source is configured  to have 1ms time base with a dedicated
  35:Src/stm32h7xx_hal_timebase_tim.c ****   *         Tick interrupt priority.
  36:Src/stm32h7xx_hal_timebase_tim.c ****   * @note   This function is called  automatically at the beginning of program after
  37:Src/stm32h7xx_hal_timebase_tim.c ****   *         reset by HAL_Init() or at any time when clock is configured, by HAL_RCC_ClockConfig().
  38:Src/stm32h7xx_hal_timebase_tim.c ****   * @param  TickPriority: Tick interrupt priority.
  39:Src/stm32h7xx_hal_timebase_tim.c ****   * @retval HAL status
  40:Src/stm32h7xx_hal_timebase_tim.c ****   */
  41:Src/stm32h7xx_hal_timebase_tim.c **** HAL_StatusTypeDef HAL_InitTick(uint32_t TickPriority)
  42:Src/stm32h7xx_hal_timebase_tim.c **** {
  29              		.loc 1 42 1 view -0
  30              		.cfi_startproc
  31              		@ args = 0, pretend = 0, frame = 40
  32              		@ frame_needed = 0, uses_anonymous_args = 0
  43:Src/stm32h7xx_hal_timebase_tim.c ****   RCC_ClkInitTypeDef    clkconfig;
  33              		.loc 1 43 3 view .LVU1
  44:Src/stm32h7xx_hal_timebase_tim.c ****   uint32_t              uwTimclock;
  34              		.loc 1 44 3 view .LVU2
  45:Src/stm32h7xx_hal_timebase_tim.c **** 
  46:Src/stm32h7xx_hal_timebase_tim.c ****   uint32_t              uwPrescalerValue;
  35              		.loc 1 46 3 view .LVU3
  47:Src/stm32h7xx_hal_timebase_tim.c ****   uint32_t              pFLatency;
  36              		.loc 1 47 3 view .LVU4
  48:Src/stm32h7xx_hal_timebase_tim.c **** /*Configure the TIM1 IRQ priority */
  49:Src/stm32h7xx_hal_timebase_tim.c ****   if (TickPriority < (1UL << __NVIC_PRIO_BITS))
  37              		.loc 1 49 3 view .LVU5
  38              		.loc 1 49 6 is_stmt 0 view .LVU6
  39 0000 0F28     		cmp	r0, #15
  40 0002 01D9     		bls	.L9
  50:Src/stm32h7xx_hal_timebase_tim.c ****   {
  51:Src/stm32h7xx_hal_timebase_tim.c ****   HAL_NVIC_SetPriority(TIM1_UP_IRQn, TickPriority ,0U);
  52:Src/stm32h7xx_hal_timebase_tim.c **** 
  53:Src/stm32h7xx_hal_timebase_tim.c ****   /* Enable the TIM1 global Interrupt */
  54:Src/stm32h7xx_hal_timebase_tim.c ****   HAL_NVIC_EnableIRQ(TIM1_UP_IRQn);
  55:Src/stm32h7xx_hal_timebase_tim.c ****     uwTickPrio = TickPriority;
  56:Src/stm32h7xx_hal_timebase_tim.c ****     }
  57:Src/stm32h7xx_hal_timebase_tim.c ****   else
  58:Src/stm32h7xx_hal_timebase_tim.c ****   {
  59:Src/stm32h7xx_hal_timebase_tim.c ****     return HAL_ERROR;
  41              		.loc 1 59 12 view .LVU7
  42 0004 0120     		movs	r0, #1
  43              	.LVL1:
  60:Src/stm32h7xx_hal_timebase_tim.c ****   }
  61:Src/stm32h7xx_hal_timebase_tim.c **** 
  62:Src/stm32h7xx_hal_timebase_tim.c ****   /* Enable TIM1 clock */
  63:Src/stm32h7xx_hal_timebase_tim.c ****   __HAL_RCC_TIM1_CLK_ENABLE();
  64:Src/stm32h7xx_hal_timebase_tim.c **** 
  65:Src/stm32h7xx_hal_timebase_tim.c ****   /* Get clock configuration */
  66:Src/stm32h7xx_hal_timebase_tim.c ****   HAL_RCC_GetClockConfig(&clkconfig, &pFLatency);
  67:Src/stm32h7xx_hal_timebase_tim.c **** 
  68:Src/stm32h7xx_hal_timebase_tim.c ****   /* Compute TIM1 clock */
  69:Src/stm32h7xx_hal_timebase_tim.c ****   uwTimclock = 2*HAL_RCC_GetPCLK2Freq();
  70:Src/stm32h7xx_hal_timebase_tim.c **** 
  71:Src/stm32h7xx_hal_timebase_tim.c ****   /* Compute the prescaler value to have TIM1 counter clock equal to 1MHz */
  72:Src/stm32h7xx_hal_timebase_tim.c ****   uwPrescalerValue = (uint32_t) ((uwTimclock / 1000000U) - 1U);
ARM GAS  /tmp/cczOCZPL.s 			page 3


  73:Src/stm32h7xx_hal_timebase_tim.c **** 
  74:Src/stm32h7xx_hal_timebase_tim.c ****   /* Initialize TIM1 */
  75:Src/stm32h7xx_hal_timebase_tim.c ****   htim1.Instance = TIM1;
  76:Src/stm32h7xx_hal_timebase_tim.c **** 
  77:Src/stm32h7xx_hal_timebase_tim.c ****   /* Initialize TIMx peripheral as follow:
  78:Src/stm32h7xx_hal_timebase_tim.c ****   + Period = [(TIM1CLK/1000) - 1]. to have a (1/1000) s time base.
  79:Src/stm32h7xx_hal_timebase_tim.c ****   + Prescaler = (uwTimclock/1000000 - 1) to have a 1MHz counter clock.
  80:Src/stm32h7xx_hal_timebase_tim.c ****   + ClockDivision = 0
  81:Src/stm32h7xx_hal_timebase_tim.c ****   + Counter direction = Up
  82:Src/stm32h7xx_hal_timebase_tim.c ****   */
  83:Src/stm32h7xx_hal_timebase_tim.c ****   htim1.Init.Period = (1000000U / 1000U) - 1U;
  84:Src/stm32h7xx_hal_timebase_tim.c ****   htim1.Init.Prescaler = uwPrescalerValue;
  85:Src/stm32h7xx_hal_timebase_tim.c ****   htim1.Init.ClockDivision = 0;
  86:Src/stm32h7xx_hal_timebase_tim.c ****   htim1.Init.CounterMode = TIM_COUNTERMODE_UP;
  87:Src/stm32h7xx_hal_timebase_tim.c **** 
  88:Src/stm32h7xx_hal_timebase_tim.c ****   if(HAL_TIM_Base_Init(&htim1) == HAL_OK)
  89:Src/stm32h7xx_hal_timebase_tim.c ****   {
  90:Src/stm32h7xx_hal_timebase_tim.c ****     /* Start the TIM time Base generation in interrupt mode */
  91:Src/stm32h7xx_hal_timebase_tim.c ****     return HAL_TIM_Base_Start_IT(&htim1);
  92:Src/stm32h7xx_hal_timebase_tim.c ****   }
  93:Src/stm32h7xx_hal_timebase_tim.c **** 
  94:Src/stm32h7xx_hal_timebase_tim.c ****   /* Return function status */
  95:Src/stm32h7xx_hal_timebase_tim.c ****   return HAL_ERROR;
  96:Src/stm32h7xx_hal_timebase_tim.c **** }
  44              		.loc 1 96 1 view .LVU8
  45 0006 7047     		bx	lr
  46              	.LVL2:
  47              	.L9:
  42:Src/stm32h7xx_hal_timebase_tim.c ****   RCC_ClkInitTypeDef    clkconfig;
  48              		.loc 1 42 1 view .LVU9
  49 0008 10B5     		push	{r4, lr}
  50              	.LCFI0:
  51              		.cfi_def_cfa_offset 8
  52              		.cfi_offset 4, -8
  53              		.cfi_offset 14, -4
  54 000a 8AB0     		sub	sp, sp, #40
  55              	.LCFI1:
  56              		.cfi_def_cfa_offset 48
  57 000c 0446     		mov	r4, r0
  51:Src/stm32h7xx_hal_timebase_tim.c **** 
  58              		.loc 1 51 3 is_stmt 1 view .LVU10
  59 000e 0022     		movs	r2, #0
  60 0010 0146     		mov	r1, r0
  61 0012 1920     		movs	r0, #25
  62              	.LVL3:
  51:Src/stm32h7xx_hal_timebase_tim.c **** 
  63              		.loc 1 51 3 is_stmt 0 view .LVU11
  64 0014 FFF7FEFF 		bl	HAL_NVIC_SetPriority
  65              	.LVL4:
  54:Src/stm32h7xx_hal_timebase_tim.c ****     uwTickPrio = TickPriority;
  66              		.loc 1 54 3 is_stmt 1 view .LVU12
  67 0018 1920     		movs	r0, #25
  68 001a FFF7FEFF 		bl	HAL_NVIC_EnableIRQ
  69              	.LVL5:
  55:Src/stm32h7xx_hal_timebase_tim.c ****     }
  70              		.loc 1 55 5 view .LVU13
  55:Src/stm32h7xx_hal_timebase_tim.c ****     }
ARM GAS  /tmp/cczOCZPL.s 			page 4


  71              		.loc 1 55 16 is_stmt 0 view .LVU14
  72 001e 174B     		ldr	r3, .L11
  73 0020 1C60     		str	r4, [r3]
  63:Src/stm32h7xx_hal_timebase_tim.c **** 
  74              		.loc 1 63 3 is_stmt 1 view .LVU15
  75              	.LBB2:
  63:Src/stm32h7xx_hal_timebase_tim.c **** 
  76              		.loc 1 63 3 view .LVU16
  63:Src/stm32h7xx_hal_timebase_tim.c **** 
  77              		.loc 1 63 3 view .LVU17
  78 0022 174B     		ldr	r3, .L11+4
  79 0024 D3F8F020 		ldr	r2, [r3, #240]
  80 0028 42F00102 		orr	r2, r2, #1
  81 002c C3F8F020 		str	r2, [r3, #240]
  63:Src/stm32h7xx_hal_timebase_tim.c **** 
  82              		.loc 1 63 3 view .LVU18
  83 0030 D3F8F030 		ldr	r3, [r3, #240]
  84 0034 03F00103 		and	r3, r3, #1
  85 0038 0093     		str	r3, [sp]
  63:Src/stm32h7xx_hal_timebase_tim.c **** 
  86              		.loc 1 63 3 view .LVU19
  87 003a 009B     		ldr	r3, [sp]
  88              	.LBE2:
  63:Src/stm32h7xx_hal_timebase_tim.c **** 
  89              		.loc 1 63 3 view .LVU20
  66:Src/stm32h7xx_hal_timebase_tim.c **** 
  90              		.loc 1 66 3 view .LVU21
  91 003c 01A9     		add	r1, sp, #4
  92 003e 02A8     		add	r0, sp, #8
  93 0040 FFF7FEFF 		bl	HAL_RCC_GetClockConfig
  94              	.LVL6:
  69:Src/stm32h7xx_hal_timebase_tim.c **** 
  95              		.loc 1 69 3 view .LVU22
  69:Src/stm32h7xx_hal_timebase_tim.c **** 
  96              		.loc 1 69 18 is_stmt 0 view .LVU23
  97 0044 FFF7FEFF 		bl	HAL_RCC_GetPCLK2Freq
  98              	.LVL7:
  69:Src/stm32h7xx_hal_timebase_tim.c **** 
  99              		.loc 1 69 14 view .LVU24
 100 0048 4300     		lsls	r3, r0, #1
 101              	.LVL8:
  72:Src/stm32h7xx_hal_timebase_tim.c **** 
 102              		.loc 1 72 3 is_stmt 1 view .LVU25
  72:Src/stm32h7xx_hal_timebase_tim.c **** 
 103              		.loc 1 72 46 is_stmt 0 view .LVU26
 104 004a 0E48     		ldr	r0, .L11+8
 105 004c A0FB0323 		umull	r2, r3, r0, r3
 106              	.LVL9:
  72:Src/stm32h7xx_hal_timebase_tim.c **** 
 107              		.loc 1 72 46 view .LVU27
 108 0050 9B0C     		lsrs	r3, r3, #18
  72:Src/stm32h7xx_hal_timebase_tim.c **** 
 109              		.loc 1 72 20 view .LVU28
 110 0052 013B     		subs	r3, r3, #1
 111              	.LVL10:
  75:Src/stm32h7xx_hal_timebase_tim.c **** 
 112              		.loc 1 75 3 is_stmt 1 view .LVU29
ARM GAS  /tmp/cczOCZPL.s 			page 5


  75:Src/stm32h7xx_hal_timebase_tim.c **** 
 113              		.loc 1 75 18 is_stmt 0 view .LVU30
 114 0054 0C48     		ldr	r0, .L11+12
 115 0056 0D4A     		ldr	r2, .L11+16
 116 0058 0260     		str	r2, [r0]
  83:Src/stm32h7xx_hal_timebase_tim.c ****   htim1.Init.Prescaler = uwPrescalerValue;
 117              		.loc 1 83 3 is_stmt 1 view .LVU31
  83:Src/stm32h7xx_hal_timebase_tim.c ****   htim1.Init.Prescaler = uwPrescalerValue;
 118              		.loc 1 83 21 is_stmt 0 view .LVU32
 119 005a 40F2E732 		movw	r2, #999
 120 005e C260     		str	r2, [r0, #12]
  84:Src/stm32h7xx_hal_timebase_tim.c ****   htim1.Init.ClockDivision = 0;
 121              		.loc 1 84 3 is_stmt 1 view .LVU33
  84:Src/stm32h7xx_hal_timebase_tim.c ****   htim1.Init.ClockDivision = 0;
 122              		.loc 1 84 24 is_stmt 0 view .LVU34
 123 0060 4360     		str	r3, [r0, #4]
  85:Src/stm32h7xx_hal_timebase_tim.c ****   htim1.Init.CounterMode = TIM_COUNTERMODE_UP;
 124              		.loc 1 85 3 is_stmt 1 view .LVU35
  85:Src/stm32h7xx_hal_timebase_tim.c ****   htim1.Init.CounterMode = TIM_COUNTERMODE_UP;
 125              		.loc 1 85 28 is_stmt 0 view .LVU36
 126 0062 0023     		movs	r3, #0
 127              	.LVL11:
  85:Src/stm32h7xx_hal_timebase_tim.c ****   htim1.Init.CounterMode = TIM_COUNTERMODE_UP;
 128              		.loc 1 85 28 view .LVU37
 129 0064 0361     		str	r3, [r0, #16]
  86:Src/stm32h7xx_hal_timebase_tim.c **** 
 130              		.loc 1 86 3 is_stmt 1 view .LVU38
  86:Src/stm32h7xx_hal_timebase_tim.c **** 
 131              		.loc 1 86 26 is_stmt 0 view .LVU39
 132 0066 8360     		str	r3, [r0, #8]
  88:Src/stm32h7xx_hal_timebase_tim.c ****   {
 133              		.loc 1 88 3 is_stmt 1 view .LVU40
  88:Src/stm32h7xx_hal_timebase_tim.c ****   {
 134              		.loc 1 88 6 is_stmt 0 view .LVU41
 135 0068 FFF7FEFF 		bl	HAL_TIM_Base_Init
 136              	.LVL12:
  88:Src/stm32h7xx_hal_timebase_tim.c ****   {
 137              		.loc 1 88 5 view .LVU42
 138 006c 10B1     		cbz	r0, .L10
  95:Src/stm32h7xx_hal_timebase_tim.c **** }
 139              		.loc 1 95 10 view .LVU43
 140 006e 0120     		movs	r0, #1
 141              	.L2:
 142              		.loc 1 96 1 view .LVU44
 143 0070 0AB0     		add	sp, sp, #40
 144              	.LCFI2:
 145              		.cfi_remember_state
 146              		.cfi_def_cfa_offset 8
 147              		@ sp needed
 148 0072 10BD     		pop	{r4, pc}
 149              	.LVL13:
 150              	.L10:
 151              	.LCFI3:
 152              		.cfi_restore_state
  91:Src/stm32h7xx_hal_timebase_tim.c ****   }
 153              		.loc 1 91 5 is_stmt 1 view .LVU45
  91:Src/stm32h7xx_hal_timebase_tim.c ****   }
ARM GAS  /tmp/cczOCZPL.s 			page 6


 154              		.loc 1 91 12 is_stmt 0 view .LVU46
 155 0074 0448     		ldr	r0, .L11+12
 156 0076 FFF7FEFF 		bl	HAL_TIM_Base_Start_IT
 157              	.LVL14:
 158 007a F9E7     		b	.L2
 159              	.L12:
 160              		.align	2
 161              	.L11:
 162 007c 00000000 		.word	uwTickPrio
 163 0080 00440258 		.word	1476543488
 164 0084 83DE1B43 		.word	1125899907
 165 0088 00000000 		.word	.LANCHOR0
 166 008c 00000140 		.word	1073807360
 167              		.cfi_endproc
 168              	.LFE141:
 170              		.section	.text.HAL_SuspendTick,"ax",%progbits
 171              		.align	1
 172              		.global	HAL_SuspendTick
 173              		.syntax unified
 174              		.thumb
 175              		.thumb_func
 177              	HAL_SuspendTick:
 178              	.LFB142:
  97:Src/stm32h7xx_hal_timebase_tim.c **** 
  98:Src/stm32h7xx_hal_timebase_tim.c **** /**
  99:Src/stm32h7xx_hal_timebase_tim.c ****   * @brief  Suspend Tick increment.
 100:Src/stm32h7xx_hal_timebase_tim.c ****   * @note   Disable the tick increment by disabling TIM1 update interrupt.
 101:Src/stm32h7xx_hal_timebase_tim.c ****   * @param  None
 102:Src/stm32h7xx_hal_timebase_tim.c ****   * @retval None
 103:Src/stm32h7xx_hal_timebase_tim.c ****   */
 104:Src/stm32h7xx_hal_timebase_tim.c **** void HAL_SuspendTick(void)
 105:Src/stm32h7xx_hal_timebase_tim.c **** {
 179              		.loc 1 105 1 is_stmt 1 view -0
 180              		.cfi_startproc
 181              		@ args = 0, pretend = 0, frame = 0
 182              		@ frame_needed = 0, uses_anonymous_args = 0
 183              		@ link register save eliminated.
 106:Src/stm32h7xx_hal_timebase_tim.c ****   /* Disable TIM1 update Interrupt */
 107:Src/stm32h7xx_hal_timebase_tim.c ****   __HAL_TIM_DISABLE_IT(&htim1, TIM_IT_UPDATE);
 184              		.loc 1 107 3 view .LVU48
 185 0000 034B     		ldr	r3, .L14
 186 0002 1A68     		ldr	r2, [r3]
 187 0004 D368     		ldr	r3, [r2, #12]
 188 0006 23F00103 		bic	r3, r3, #1
 189 000a D360     		str	r3, [r2, #12]
 108:Src/stm32h7xx_hal_timebase_tim.c **** }
 190              		.loc 1 108 1 is_stmt 0 view .LVU49
 191 000c 7047     		bx	lr
 192              	.L15:
 193 000e 00BF     		.align	2
 194              	.L14:
 195 0010 00000000 		.word	.LANCHOR0
 196              		.cfi_endproc
 197              	.LFE142:
 199              		.section	.text.HAL_ResumeTick,"ax",%progbits
 200              		.align	1
 201              		.global	HAL_ResumeTick
ARM GAS  /tmp/cczOCZPL.s 			page 7


 202              		.syntax unified
 203              		.thumb
 204              		.thumb_func
 206              	HAL_ResumeTick:
 207              	.LFB143:
 109:Src/stm32h7xx_hal_timebase_tim.c **** 
 110:Src/stm32h7xx_hal_timebase_tim.c **** /**
 111:Src/stm32h7xx_hal_timebase_tim.c ****   * @brief  Resume Tick increment.
 112:Src/stm32h7xx_hal_timebase_tim.c ****   * @note   Enable the tick increment by Enabling TIM1 update interrupt.
 113:Src/stm32h7xx_hal_timebase_tim.c ****   * @param  None
 114:Src/stm32h7xx_hal_timebase_tim.c ****   * @retval None
 115:Src/stm32h7xx_hal_timebase_tim.c ****   */
 116:Src/stm32h7xx_hal_timebase_tim.c **** void HAL_ResumeTick(void)
 117:Src/stm32h7xx_hal_timebase_tim.c **** {
 208              		.loc 1 117 1 is_stmt 1 view -0
 209              		.cfi_startproc
 210              		@ args = 0, pretend = 0, frame = 0
 211              		@ frame_needed = 0, uses_anonymous_args = 0
 212              		@ link register save eliminated.
 118:Src/stm32h7xx_hal_timebase_tim.c ****   /* Enable TIM1 Update interrupt */
 119:Src/stm32h7xx_hal_timebase_tim.c ****   __HAL_TIM_ENABLE_IT(&htim1, TIM_IT_UPDATE);
 213              		.loc 1 119 3 view .LVU51
 214 0000 034B     		ldr	r3, .L17
 215 0002 1A68     		ldr	r2, [r3]
 216 0004 D368     		ldr	r3, [r2, #12]
 217 0006 43F00103 		orr	r3, r3, #1
 218 000a D360     		str	r3, [r2, #12]
 120:Src/stm32h7xx_hal_timebase_tim.c **** }
 219              		.loc 1 120 1 is_stmt 0 view .LVU52
 220 000c 7047     		bx	lr
 221              	.L18:
 222 000e 00BF     		.align	2
 223              	.L17:
 224 0010 00000000 		.word	.LANCHOR0
 225              		.cfi_endproc
 226              	.LFE143:
 228              		.global	htim1
 229              		.section	.bss.htim1,"aw",%nobits
 230              		.align	2
 231              		.set	.LANCHOR0,. + 0
 234              	htim1:
 235 0000 00000000 		.space	76
 235      00000000 
 235      00000000 
 235      00000000 
 235      00000000 
 236              		.text
 237              	.Letext0:
 238              		.file 2 "/home/joseluiz/Programs/gcc-arm-none-eabi-10.3-2021.10-x86_64-linux/arm-none-eabi/include
 239              		.file 3 "/home/joseluiz/Programs/gcc-arm-none-eabi-10.3-2021.10-x86_64-linux/arm-none-eabi/include
 240              		.file 4 "Drivers/cmsis_device_h7/Include/stm32h743xx.h"
 241              		.file 5 "Drivers/stm32h7xx_hal_driver/Inc/stm32h7xx_hal_def.h"
 242              		.file 6 "Drivers/stm32h7xx_hal_driver/Inc/stm32h7xx_hal_rcc.h"
 243              		.file 7 "Drivers/stm32h7xx_hal_driver/Inc/stm32h7xx_hal_dma.h"
 244              		.file 8 "Drivers/stm32h7xx_hal_driver/Inc/stm32h7xx_hal_tim.h"
 245              		.file 9 "Drivers/stm32h7xx_hal_driver/Inc/stm32h7xx_hal.h"
 246              		.file 10 "Drivers/stm32h7xx_hal_driver/Inc/stm32h7xx_hal_cortex.h"
ARM GAS  /tmp/cczOCZPL.s 			page 8


ARM GAS  /tmp/cczOCZPL.s 			page 9

