ARM GAS  /tmp/ccNefY6P.s 			page 1


   1              		.cpu cortex-m7
   2              		.arch armv7e-m
   3              		.fpu fpv5-d16
   4              		.eabi_attribute 28, 1
   5              		.eabi_attribute 20, 1
   6              		.eabi_attribute 21, 1
   7              		.eabi_attribute 23, 3
   8              		.eabi_attribute 24, 1
   9              		.eabi_attribute 25, 1
  10              		.eabi_attribute 26, 1
  11              		.eabi_attribute 30, 1
  12              		.eabi_attribute 34, 1
  13              		.eabi_attribute 18, 4
  14              		.file	"syscalls.c"
  15              		.text
  16              	.Ltext0:
  17              		.cfi_sections	.debug_frame
  18              		.section	.text.initialise_monitor_handles,"ax",%progbits
  19              		.align	1
  20              		.global	initialise_monitor_handles
  21              		.syntax unified
  22              		.thumb
  23              		.thumb_func
  25              	initialise_monitor_handles:
  26              	.LFB25:
  27              		.file 1 "../../Core/Src/syscalls.c"
   1:../../Core/Src/syscalls.c **** /**
   2:../../Core/Src/syscalls.c ****  ******************************************************************************
   3:../../Core/Src/syscalls.c ****  * @file      syscalls.c
   4:../../Core/Src/syscalls.c ****  * @author    Auto-generated by STM32CubeIDE
   5:../../Core/Src/syscalls.c ****  * @brief     STM32CubeIDE Minimal System calls file
   6:../../Core/Src/syscalls.c ****  *
   7:../../Core/Src/syscalls.c ****  *            For more information about which c-functions
   8:../../Core/Src/syscalls.c ****  *            need which of these lowlevel functions
   9:../../Core/Src/syscalls.c ****  *            please consult the Newlib libc-manual
  10:../../Core/Src/syscalls.c ****  ******************************************************************************
  11:../../Core/Src/syscalls.c ****  * @attention
  12:../../Core/Src/syscalls.c ****  *
  13:../../Core/Src/syscalls.c ****  * Copyright (c) 2022 STMicroelectronics.
  14:../../Core/Src/syscalls.c ****  * All rights reserved.
  15:../../Core/Src/syscalls.c ****  *
  16:../../Core/Src/syscalls.c ****  * This software is licensed under terms that can be found in the LICENSE file
  17:../../Core/Src/syscalls.c ****  * in the root directory of this software component.
  18:../../Core/Src/syscalls.c ****  * If no LICENSE file comes with this software, it is provided AS-IS.
  19:../../Core/Src/syscalls.c ****  *
  20:../../Core/Src/syscalls.c ****  ******************************************************************************
  21:../../Core/Src/syscalls.c ****  */
  22:../../Core/Src/syscalls.c **** 
  23:../../Core/Src/syscalls.c **** /* Includes */
  24:../../Core/Src/syscalls.c **** #include <sys/stat.h>
  25:../../Core/Src/syscalls.c **** #include <stdlib.h>
  26:../../Core/Src/syscalls.c **** #include <errno.h>
  27:../../Core/Src/syscalls.c **** #include <stdio.h>
  28:../../Core/Src/syscalls.c **** #include <signal.h>
  29:../../Core/Src/syscalls.c **** #include <time.h>
  30:../../Core/Src/syscalls.c **** #include <sys/time.h>
  31:../../Core/Src/syscalls.c **** #include <sys/times.h>
ARM GAS  /tmp/ccNefY6P.s 			page 2


  32:../../Core/Src/syscalls.c **** 
  33:../../Core/Src/syscalls.c **** 
  34:../../Core/Src/syscalls.c **** /* Variables */
  35:../../Core/Src/syscalls.c **** extern int __io_putchar(int ch) __attribute__((weak));
  36:../../Core/Src/syscalls.c **** extern int __io_getchar(void) __attribute__((weak));
  37:../../Core/Src/syscalls.c **** 
  38:../../Core/Src/syscalls.c **** 
  39:../../Core/Src/syscalls.c **** char *__env[1] = { 0 };
  40:../../Core/Src/syscalls.c **** char **environ = __env;
  41:../../Core/Src/syscalls.c **** 
  42:../../Core/Src/syscalls.c **** 
  43:../../Core/Src/syscalls.c **** /* Functions */
  44:../../Core/Src/syscalls.c **** void initialise_monitor_handles()
  45:../../Core/Src/syscalls.c **** {
  28              		.loc 1 45 1 view -0
  29              		.cfi_startproc
  30              		@ args = 0, pretend = 0, frame = 0
  31              		@ frame_needed = 0, uses_anonymous_args = 0
  32              		@ link register save eliminated.
  46:../../Core/Src/syscalls.c **** }
  33              		.loc 1 46 1 view .LVU1
  34 0000 7047     		bx	lr
  35              		.cfi_endproc
  36              	.LFE25:
  38              		.section	.text._getpid,"ax",%progbits
  39              		.align	1
  40              		.global	_getpid
  41              		.syntax unified
  42              		.thumb
  43              		.thumb_func
  45              	_getpid:
  46              	.LFB26:
  47:../../Core/Src/syscalls.c **** 
  48:../../Core/Src/syscalls.c **** int _getpid(void)
  49:../../Core/Src/syscalls.c **** {
  47              		.loc 1 49 1 view -0
  48              		.cfi_startproc
  49              		@ args = 0, pretend = 0, frame = 0
  50              		@ frame_needed = 0, uses_anonymous_args = 0
  51              		@ link register save eliminated.
  50:../../Core/Src/syscalls.c **** 	return 1;
  52              		.loc 1 50 2 view .LVU3
  51:../../Core/Src/syscalls.c **** }
  53              		.loc 1 51 1 is_stmt 0 view .LVU4
  54 0000 0120     		movs	r0, #1
  55 0002 7047     		bx	lr
  56              		.cfi_endproc
  57              	.LFE26:
  59              		.section	.text._kill,"ax",%progbits
  60              		.align	1
  61              		.global	_kill
  62              		.syntax unified
  63              		.thumb
  64              		.thumb_func
  66              	_kill:
  67              	.LVL0:
  68              	.LFB27:
ARM GAS  /tmp/ccNefY6P.s 			page 3


  52:../../Core/Src/syscalls.c **** 
  53:../../Core/Src/syscalls.c **** int _kill(int pid, int sig)
  54:../../Core/Src/syscalls.c **** {
  69              		.loc 1 54 1 is_stmt 1 view -0
  70              		.cfi_startproc
  71              		@ args = 0, pretend = 0, frame = 0
  72              		@ frame_needed = 0, uses_anonymous_args = 0
  73              		.loc 1 54 1 is_stmt 0 view .LVU6
  74 0000 08B5     		push	{r3, lr}
  75              	.LCFI0:
  76              		.cfi_def_cfa_offset 8
  77              		.cfi_offset 3, -8
  78              		.cfi_offset 14, -4
  55:../../Core/Src/syscalls.c **** 	errno = EINVAL;
  79              		.loc 1 55 2 is_stmt 1 view .LVU7
  80 0002 FFF7FEFF 		bl	__errno
  81              	.LVL1:
  82              		.loc 1 55 8 is_stmt 0 view .LVU8
  83 0006 1623     		movs	r3, #22
  84 0008 0360     		str	r3, [r0]
  56:../../Core/Src/syscalls.c **** 	return -1;
  85              		.loc 1 56 2 is_stmt 1 view .LVU9
  57:../../Core/Src/syscalls.c **** }
  86              		.loc 1 57 1 is_stmt 0 view .LVU10
  87 000a 4FF0FF30 		mov	r0, #-1
  88 000e 08BD     		pop	{r3, pc}
  89              		.cfi_endproc
  90              	.LFE27:
  92              		.section	.text._exit,"ax",%progbits
  93              		.align	1
  94              		.global	_exit
  95              		.syntax unified
  96              		.thumb
  97              		.thumb_func
  99              	_exit:
 100              	.LVL2:
 101              	.LFB28:
  58:../../Core/Src/syscalls.c **** 
  59:../../Core/Src/syscalls.c **** void _exit (int status)
  60:../../Core/Src/syscalls.c **** {
 102              		.loc 1 60 1 is_stmt 1 view -0
 103              		.cfi_startproc
 104              		@ Volatile: function does not return.
 105              		@ args = 0, pretend = 0, frame = 0
 106              		@ frame_needed = 0, uses_anonymous_args = 0
 107              		.loc 1 60 1 is_stmt 0 view .LVU12
 108 0000 08B5     		push	{r3, lr}
 109              	.LCFI1:
 110              		.cfi_def_cfa_offset 8
 111              		.cfi_offset 3, -8
 112              		.cfi_offset 14, -4
  61:../../Core/Src/syscalls.c **** 	_kill(status, -1);
 113              		.loc 1 61 2 is_stmt 1 view .LVU13
 114 0002 4FF0FF31 		mov	r1, #-1
 115 0006 FFF7FEFF 		bl	_kill
 116              	.LVL3:
 117              	.L6:
ARM GAS  /tmp/ccNefY6P.s 			page 4


  62:../../Core/Src/syscalls.c **** 	while (1) {}		/* Make sure we hang here */
 118              		.loc 1 62 2 discriminator 1 view .LVU14
 119              		.loc 1 62 13 discriminator 1 view .LVU15
 120              		.loc 1 62 8 discriminator 1 view .LVU16
 121 000a FEE7     		b	.L6
 122              		.cfi_endproc
 123              	.LFE28:
 125              		.section	.text._read,"ax",%progbits
 126              		.align	1
 127              		.weak	_read
 128              		.syntax unified
 129              		.thumb
 130              		.thumb_func
 132              	_read:
 133              	.LVL4:
 134              	.LFB29:
  63:../../Core/Src/syscalls.c **** }
  64:../../Core/Src/syscalls.c **** 
  65:../../Core/Src/syscalls.c **** __attribute__((weak)) int _read(int file, char *ptr, int len)
  66:../../Core/Src/syscalls.c **** {
 135              		.loc 1 66 1 view -0
 136              		.cfi_startproc
 137              		@ args = 0, pretend = 0, frame = 0
 138              		@ frame_needed = 0, uses_anonymous_args = 0
 139              		.loc 1 66 1 is_stmt 0 view .LVU18
 140 0000 70B5     		push	{r4, r5, r6, lr}
 141              	.LCFI2:
 142              		.cfi_def_cfa_offset 16
 143              		.cfi_offset 4, -16
 144              		.cfi_offset 5, -12
 145              		.cfi_offset 6, -8
 146              		.cfi_offset 14, -4
 147 0002 0C46     		mov	r4, r1
 148 0004 1646     		mov	r6, r2
  67:../../Core/Src/syscalls.c **** 	int DataIdx;
 149              		.loc 1 67 2 is_stmt 1 view .LVU19
  68:../../Core/Src/syscalls.c **** 
  69:../../Core/Src/syscalls.c **** 	for (DataIdx = 0; DataIdx < len; DataIdx++)
 150              		.loc 1 69 2 view .LVU20
 151              	.LVL5:
 152              		.loc 1 69 15 is_stmt 0 view .LVU21
 153 0006 0025     		movs	r5, #0
 154              		.loc 1 69 2 view .LVU22
 155 0008 06E0     		b	.L9
 156              	.LVL6:
 157              	.L10:
  70:../../Core/Src/syscalls.c **** 	{
  71:../../Core/Src/syscalls.c **** 		*ptr++ = __io_getchar();
 158              		.loc 1 71 3 is_stmt 1 discriminator 3 view .LVU23
 159              		.loc 1 71 12 is_stmt 0 discriminator 3 view .LVU24
 160 000a FFF7FEFF 		bl	__io_getchar
 161              	.LVL7:
 162              		.loc 1 71 7 discriminator 3 view .LVU25
 163 000e 2146     		mov	r1, r4
 164              	.LVL8:
 165              		.loc 1 71 10 discriminator 3 view .LVU26
 166 0010 01F8010B 		strb	r0, [r1], #1
ARM GAS  /tmp/ccNefY6P.s 			page 5


 167              	.LVL9:
  69:../../Core/Src/syscalls.c **** 	{
 168              		.loc 1 69 35 is_stmt 1 discriminator 3 view .LVU27
  69:../../Core/Src/syscalls.c **** 	{
 169              		.loc 1 69 42 is_stmt 0 discriminator 3 view .LVU28
 170 0014 0135     		adds	r5, r5, #1
 171              	.LVL10:
 172              		.loc 1 71 7 discriminator 3 view .LVU29
 173 0016 0C46     		mov	r4, r1
 174              	.LVL11:
 175              	.L9:
  69:../../Core/Src/syscalls.c **** 	{
 176              		.loc 1 69 20 is_stmt 1 discriminator 1 view .LVU30
  69:../../Core/Src/syscalls.c **** 	{
 177              		.loc 1 69 2 is_stmt 0 discriminator 1 view .LVU31
 178 0018 B542     		cmp	r5, r6
 179 001a F6DB     		blt	.L10
  72:../../Core/Src/syscalls.c **** 	}
  73:../../Core/Src/syscalls.c **** 
  74:../../Core/Src/syscalls.c **** return len;
 180              		.loc 1 74 1 is_stmt 1 view .LVU32
  75:../../Core/Src/syscalls.c **** }
 181              		.loc 1 75 1 is_stmt 0 view .LVU33
 182 001c 3046     		mov	r0, r6
 183 001e 70BD     		pop	{r4, r5, r6, pc}
 184              		.loc 1 75 1 view .LVU34
 185              		.cfi_endproc
 186              	.LFE29:
 188              		.section	.text._write,"ax",%progbits
 189              		.align	1
 190              		.weak	_write
 191              		.syntax unified
 192              		.thumb
 193              		.thumb_func
 195              	_write:
 196              	.LVL12:
 197              	.LFB30:
  76:../../Core/Src/syscalls.c **** 
  77:../../Core/Src/syscalls.c **** __attribute__((weak)) int _write(int file, char *ptr, int len)
  78:../../Core/Src/syscalls.c **** {
 198              		.loc 1 78 1 is_stmt 1 view -0
 199              		.cfi_startproc
 200              		@ args = 0, pretend = 0, frame = 0
 201              		@ frame_needed = 0, uses_anonymous_args = 0
 202              		.loc 1 78 1 is_stmt 0 view .LVU36
 203 0000 70B5     		push	{r4, r5, r6, lr}
 204              	.LCFI3:
 205              		.cfi_def_cfa_offset 16
 206              		.cfi_offset 4, -16
 207              		.cfi_offset 5, -12
 208              		.cfi_offset 6, -8
 209              		.cfi_offset 14, -4
 210 0002 0C46     		mov	r4, r1
 211 0004 1646     		mov	r6, r2
  79:../../Core/Src/syscalls.c **** 	int DataIdx;
 212              		.loc 1 79 2 is_stmt 1 view .LVU37
  80:../../Core/Src/syscalls.c **** 
ARM GAS  /tmp/ccNefY6P.s 			page 6


  81:../../Core/Src/syscalls.c **** 	for (DataIdx = 0; DataIdx < len; DataIdx++)
 213              		.loc 1 81 2 view .LVU38
 214              	.LVL13:
 215              		.loc 1 81 15 is_stmt 0 view .LVU39
 216 0006 0025     		movs	r5, #0
 217              		.loc 1 81 2 view .LVU40
 218 0008 04E0     		b	.L13
 219              	.LVL14:
 220              	.L14:
  82:../../Core/Src/syscalls.c **** 	{
  83:../../Core/Src/syscalls.c **** 		__io_putchar(*ptr++);
 221              		.loc 1 83 3 is_stmt 1 discriminator 3 view .LVU41
 222              		.loc 1 83 3 is_stmt 0 discriminator 3 view .LVU42
 223 000a 14F8010B 		ldrb	r0, [r4], #1	@ zero_extendqisi2
 224              	.LVL15:
 225              		.loc 1 83 3 discriminator 3 view .LVU43
 226 000e FFF7FEFF 		bl	__io_putchar
 227              	.LVL16:
  81:../../Core/Src/syscalls.c **** 	{
 228              		.loc 1 81 35 is_stmt 1 discriminator 3 view .LVU44
  81:../../Core/Src/syscalls.c **** 	{
 229              		.loc 1 81 42 is_stmt 0 discriminator 3 view .LVU45
 230 0012 0135     		adds	r5, r5, #1
 231              	.LVL17:
 232              	.L13:
  81:../../Core/Src/syscalls.c **** 	{
 233              		.loc 1 81 20 is_stmt 1 discriminator 1 view .LVU46
  81:../../Core/Src/syscalls.c **** 	{
 234              		.loc 1 81 2 is_stmt 0 discriminator 1 view .LVU47
 235 0014 B542     		cmp	r5, r6
 236 0016 F8DB     		blt	.L14
  84:../../Core/Src/syscalls.c **** 	}
  85:../../Core/Src/syscalls.c **** 	return len;
 237              		.loc 1 85 2 is_stmt 1 view .LVU48
  86:../../Core/Src/syscalls.c **** }
 238              		.loc 1 86 1 is_stmt 0 view .LVU49
 239 0018 3046     		mov	r0, r6
 240 001a 70BD     		pop	{r4, r5, r6, pc}
 241              		.loc 1 86 1 view .LVU50
 242              		.cfi_endproc
 243              	.LFE30:
 245              		.section	.text._close,"ax",%progbits
 246              		.align	1
 247              		.global	_close
 248              		.syntax unified
 249              		.thumb
 250              		.thumb_func
 252              	_close:
 253              	.LVL18:
 254              	.LFB31:
  87:../../Core/Src/syscalls.c **** 
  88:../../Core/Src/syscalls.c **** int _close(int file)
  89:../../Core/Src/syscalls.c **** {
 255              		.loc 1 89 1 is_stmt 1 view -0
 256              		.cfi_startproc
 257              		@ args = 0, pretend = 0, frame = 0
 258              		@ frame_needed = 0, uses_anonymous_args = 0
ARM GAS  /tmp/ccNefY6P.s 			page 7


 259              		@ link register save eliminated.
  90:../../Core/Src/syscalls.c **** 	return -1;
 260              		.loc 1 90 2 view .LVU52
  91:../../Core/Src/syscalls.c **** }
 261              		.loc 1 91 1 is_stmt 0 view .LVU53
 262 0000 4FF0FF30 		mov	r0, #-1
 263              	.LVL19:
 264              		.loc 1 91 1 view .LVU54
 265 0004 7047     		bx	lr
 266              		.cfi_endproc
 267              	.LFE31:
 269              		.section	.text._fstat,"ax",%progbits
 270              		.align	1
 271              		.global	_fstat
 272              		.syntax unified
 273              		.thumb
 274              		.thumb_func
 276              	_fstat:
 277              	.LVL20:
 278              	.LFB32:
  92:../../Core/Src/syscalls.c **** 
  93:../../Core/Src/syscalls.c **** 
  94:../../Core/Src/syscalls.c **** int _fstat(int file, struct stat *st)
  95:../../Core/Src/syscalls.c **** {
 279              		.loc 1 95 1 is_stmt 1 view -0
 280              		.cfi_startproc
 281              		@ args = 0, pretend = 0, frame = 0
 282              		@ frame_needed = 0, uses_anonymous_args = 0
 283              		@ link register save eliminated.
  96:../../Core/Src/syscalls.c **** 	st->st_mode = S_IFCHR;
 284              		.loc 1 96 2 view .LVU56
 285              		.loc 1 96 14 is_stmt 0 view .LVU57
 286 0000 4FF40053 		mov	r3, #8192
 287 0004 4B60     		str	r3, [r1, #4]
  97:../../Core/Src/syscalls.c **** 	return 0;
 288              		.loc 1 97 2 is_stmt 1 view .LVU58
  98:../../Core/Src/syscalls.c **** }
 289              		.loc 1 98 1 is_stmt 0 view .LVU59
 290 0006 0020     		movs	r0, #0
 291              	.LVL21:
 292              		.loc 1 98 1 view .LVU60
 293 0008 7047     		bx	lr
 294              		.cfi_endproc
 295              	.LFE32:
 297              		.section	.text._isatty,"ax",%progbits
 298              		.align	1
 299              		.global	_isatty
 300              		.syntax unified
 301              		.thumb
 302              		.thumb_func
 304              	_isatty:
 305              	.LVL22:
 306              	.LFB33:
  99:../../Core/Src/syscalls.c **** 
 100:../../Core/Src/syscalls.c **** int _isatty(int file)
 101:../../Core/Src/syscalls.c **** {
 307              		.loc 1 101 1 is_stmt 1 view -0
ARM GAS  /tmp/ccNefY6P.s 			page 8


 308              		.cfi_startproc
 309              		@ args = 0, pretend = 0, frame = 0
 310              		@ frame_needed = 0, uses_anonymous_args = 0
 311              		@ link register save eliminated.
 102:../../Core/Src/syscalls.c **** 	return 1;
 312              		.loc 1 102 2 view .LVU62
 103:../../Core/Src/syscalls.c **** }
 313              		.loc 1 103 1 is_stmt 0 view .LVU63
 314 0000 0120     		movs	r0, #1
 315              	.LVL23:
 316              		.loc 1 103 1 view .LVU64
 317 0002 7047     		bx	lr
 318              		.cfi_endproc
 319              	.LFE33:
 321              		.section	.text._lseek,"ax",%progbits
 322              		.align	1
 323              		.global	_lseek
 324              		.syntax unified
 325              		.thumb
 326              		.thumb_func
 328              	_lseek:
 329              	.LVL24:
 330              	.LFB34:
 104:../../Core/Src/syscalls.c **** 
 105:../../Core/Src/syscalls.c **** int _lseek(int file, int ptr, int dir)
 106:../../Core/Src/syscalls.c **** {
 331              		.loc 1 106 1 is_stmt 1 view -0
 332              		.cfi_startproc
 333              		@ args = 0, pretend = 0, frame = 0
 334              		@ frame_needed = 0, uses_anonymous_args = 0
 335              		@ link register save eliminated.
 107:../../Core/Src/syscalls.c **** 	return 0;
 336              		.loc 1 107 2 view .LVU66
 108:../../Core/Src/syscalls.c **** }
 337              		.loc 1 108 1 is_stmt 0 view .LVU67
 338 0000 0020     		movs	r0, #0
 339              	.LVL25:
 340              		.loc 1 108 1 view .LVU68
 341 0002 7047     		bx	lr
 342              		.cfi_endproc
 343              	.LFE34:
 345              		.section	.text._open,"ax",%progbits
 346              		.align	1
 347              		.global	_open
 348              		.syntax unified
 349              		.thumb
 350              		.thumb_func
 352              	_open:
 353              	.LVL26:
 354              	.LFB35:
 109:../../Core/Src/syscalls.c **** 
 110:../../Core/Src/syscalls.c **** int _open(char *path, int flags, ...)
 111:../../Core/Src/syscalls.c **** {
 355              		.loc 1 111 1 is_stmt 1 view -0
 356              		.cfi_startproc
 357              		@ args = 4, pretend = 12, frame = 0
 358              		@ frame_needed = 0, uses_anonymous_args = 1
ARM GAS  /tmp/ccNefY6P.s 			page 9


 359              		@ link register save eliminated.
 360              		.loc 1 111 1 is_stmt 0 view .LVU70
 361 0000 0EB4     		push	{r1, r2, r3}
 362              	.LCFI4:
 363              		.cfi_def_cfa_offset 12
 364              		.cfi_offset 1, -12
 365              		.cfi_offset 2, -8
 366              		.cfi_offset 3, -4
 112:../../Core/Src/syscalls.c **** 	/* Pretend like we always fail */
 113:../../Core/Src/syscalls.c **** 	return -1;
 367              		.loc 1 113 2 is_stmt 1 view .LVU71
 114:../../Core/Src/syscalls.c **** }
 368              		.loc 1 114 1 is_stmt 0 view .LVU72
 369 0002 4FF0FF30 		mov	r0, #-1
 370              	.LVL27:
 371              		.loc 1 114 1 view .LVU73
 372 0006 03B0     		add	sp, sp, #12
 373              	.LCFI5:
 374              		.cfi_restore 3
 375              		.cfi_restore 2
 376              		.cfi_restore 1
 377              		.cfi_def_cfa_offset 0
 378 0008 7047     		bx	lr
 379              		.cfi_endproc
 380              	.LFE35:
 382              		.section	.text._wait,"ax",%progbits
 383              		.align	1
 384              		.global	_wait
 385              		.syntax unified
 386              		.thumb
 387              		.thumb_func
 389              	_wait:
 390              	.LVL28:
 391              	.LFB36:
 115:../../Core/Src/syscalls.c **** 
 116:../../Core/Src/syscalls.c **** int _wait(int *status)
 117:../../Core/Src/syscalls.c **** {
 392              		.loc 1 117 1 is_stmt 1 view -0
 393              		.cfi_startproc
 394              		@ args = 0, pretend = 0, frame = 0
 395              		@ frame_needed = 0, uses_anonymous_args = 0
 396              		.loc 1 117 1 is_stmt 0 view .LVU75
 397 0000 08B5     		push	{r3, lr}
 398              	.LCFI6:
 399              		.cfi_def_cfa_offset 8
 400              		.cfi_offset 3, -8
 401              		.cfi_offset 14, -4
 118:../../Core/Src/syscalls.c **** 	errno = ECHILD;
 402              		.loc 1 118 2 is_stmt 1 view .LVU76
 403 0002 FFF7FEFF 		bl	__errno
 404              	.LVL29:
 405              		.loc 1 118 8 is_stmt 0 view .LVU77
 406 0006 0A23     		movs	r3, #10
 407 0008 0360     		str	r3, [r0]
 119:../../Core/Src/syscalls.c **** 	return -1;
 408              		.loc 1 119 2 is_stmt 1 view .LVU78
 120:../../Core/Src/syscalls.c **** }
ARM GAS  /tmp/ccNefY6P.s 			page 10


 409              		.loc 1 120 1 is_stmt 0 view .LVU79
 410 000a 4FF0FF30 		mov	r0, #-1
 411 000e 08BD     		pop	{r3, pc}
 412              		.cfi_endproc
 413              	.LFE36:
 415              		.section	.text._unlink,"ax",%progbits
 416              		.align	1
 417              		.global	_unlink
 418              		.syntax unified
 419              		.thumb
 420              		.thumb_func
 422              	_unlink:
 423              	.LVL30:
 424              	.LFB37:
 121:../../Core/Src/syscalls.c **** 
 122:../../Core/Src/syscalls.c **** int _unlink(char *name)
 123:../../Core/Src/syscalls.c **** {
 425              		.loc 1 123 1 is_stmt 1 view -0
 426              		.cfi_startproc
 427              		@ args = 0, pretend = 0, frame = 0
 428              		@ frame_needed = 0, uses_anonymous_args = 0
 429              		.loc 1 123 1 is_stmt 0 view .LVU81
 430 0000 08B5     		push	{r3, lr}
 431              	.LCFI7:
 432              		.cfi_def_cfa_offset 8
 433              		.cfi_offset 3, -8
 434              		.cfi_offset 14, -4
 124:../../Core/Src/syscalls.c **** 	errno = ENOENT;
 435              		.loc 1 124 2 is_stmt 1 view .LVU82
 436 0002 FFF7FEFF 		bl	__errno
 437              	.LVL31:
 438              		.loc 1 124 8 is_stmt 0 view .LVU83
 439 0006 0223     		movs	r3, #2
 440 0008 0360     		str	r3, [r0]
 125:../../Core/Src/syscalls.c **** 	return -1;
 441              		.loc 1 125 2 is_stmt 1 view .LVU84
 126:../../Core/Src/syscalls.c **** }
 442              		.loc 1 126 1 is_stmt 0 view .LVU85
 443 000a 4FF0FF30 		mov	r0, #-1
 444 000e 08BD     		pop	{r3, pc}
 445              		.cfi_endproc
 446              	.LFE37:
 448              		.section	.text._times,"ax",%progbits
 449              		.align	1
 450              		.global	_times
 451              		.syntax unified
 452              		.thumb
 453              		.thumb_func
 455              	_times:
 456              	.LVL32:
 457              	.LFB38:
 127:../../Core/Src/syscalls.c **** 
 128:../../Core/Src/syscalls.c **** int _times(struct tms *buf)
 129:../../Core/Src/syscalls.c **** {
 458              		.loc 1 129 1 is_stmt 1 view -0
 459              		.cfi_startproc
 460              		@ args = 0, pretend = 0, frame = 0
ARM GAS  /tmp/ccNefY6P.s 			page 11


 461              		@ frame_needed = 0, uses_anonymous_args = 0
 462              		@ link register save eliminated.
 130:../../Core/Src/syscalls.c **** 	return -1;
 463              		.loc 1 130 2 view .LVU87
 131:../../Core/Src/syscalls.c **** }
 464              		.loc 1 131 1 is_stmt 0 view .LVU88
 465 0000 4FF0FF30 		mov	r0, #-1
 466              	.LVL33:
 467              		.loc 1 131 1 view .LVU89
 468 0004 7047     		bx	lr
 469              		.cfi_endproc
 470              	.LFE38:
 472              		.section	.text._stat,"ax",%progbits
 473              		.align	1
 474              		.global	_stat
 475              		.syntax unified
 476              		.thumb
 477              		.thumb_func
 479              	_stat:
 480              	.LVL34:
 481              	.LFB39:
 132:../../Core/Src/syscalls.c **** 
 133:../../Core/Src/syscalls.c **** int _stat(char *file, struct stat *st)
 134:../../Core/Src/syscalls.c **** {
 482              		.loc 1 134 1 is_stmt 1 view -0
 483              		.cfi_startproc
 484              		@ args = 0, pretend = 0, frame = 0
 485              		@ frame_needed = 0, uses_anonymous_args = 0
 486              		@ link register save eliminated.
 135:../../Core/Src/syscalls.c **** 	st->st_mode = S_IFCHR;
 487              		.loc 1 135 2 view .LVU91
 488              		.loc 1 135 14 is_stmt 0 view .LVU92
 489 0000 4FF40053 		mov	r3, #8192
 490 0004 4B60     		str	r3, [r1, #4]
 136:../../Core/Src/syscalls.c **** 	return 0;
 491              		.loc 1 136 2 is_stmt 1 view .LVU93
 137:../../Core/Src/syscalls.c **** }
 492              		.loc 1 137 1 is_stmt 0 view .LVU94
 493 0006 0020     		movs	r0, #0
 494              	.LVL35:
 495              		.loc 1 137 1 view .LVU95
 496 0008 7047     		bx	lr
 497              		.cfi_endproc
 498              	.LFE39:
 500              		.section	.text._link,"ax",%progbits
 501              		.align	1
 502              		.global	_link
 503              		.syntax unified
 504              		.thumb
 505              		.thumb_func
 507              	_link:
 508              	.LVL36:
 509              	.LFB40:
 138:../../Core/Src/syscalls.c **** 
 139:../../Core/Src/syscalls.c **** int _link(char *old, char *new)
 140:../../Core/Src/syscalls.c **** {
 510              		.loc 1 140 1 is_stmt 1 view -0
ARM GAS  /tmp/ccNefY6P.s 			page 12


 511              		.cfi_startproc
 512              		@ args = 0, pretend = 0, frame = 0
 513              		@ frame_needed = 0, uses_anonymous_args = 0
 514              		.loc 1 140 1 is_stmt 0 view .LVU97
 515 0000 08B5     		push	{r3, lr}
 516              	.LCFI8:
 517              		.cfi_def_cfa_offset 8
 518              		.cfi_offset 3, -8
 519              		.cfi_offset 14, -4
 141:../../Core/Src/syscalls.c **** 	errno = EMLINK;
 520              		.loc 1 141 2 is_stmt 1 view .LVU98
 521 0002 FFF7FEFF 		bl	__errno
 522              	.LVL37:
 523              		.loc 1 141 8 is_stmt 0 view .LVU99
 524 0006 1F23     		movs	r3, #31
 525 0008 0360     		str	r3, [r0]
 142:../../Core/Src/syscalls.c **** 	return -1;
 526              		.loc 1 142 2 is_stmt 1 view .LVU100
 143:../../Core/Src/syscalls.c **** }
 527              		.loc 1 143 1 is_stmt 0 view .LVU101
 528 000a 4FF0FF30 		mov	r0, #-1
 529 000e 08BD     		pop	{r3, pc}
 530              		.cfi_endproc
 531              	.LFE40:
 533              		.section	.text._fork,"ax",%progbits
 534              		.align	1
 535              		.global	_fork
 536              		.syntax unified
 537              		.thumb
 538              		.thumb_func
 540              	_fork:
 541              	.LFB41:
 144:../../Core/Src/syscalls.c **** 
 145:../../Core/Src/syscalls.c **** int _fork(void)
 146:../../Core/Src/syscalls.c **** {
 542              		.loc 1 146 1 is_stmt 1 view -0
 543              		.cfi_startproc
 544              		@ args = 0, pretend = 0, frame = 0
 545              		@ frame_needed = 0, uses_anonymous_args = 0
 546 0000 08B5     		push	{r3, lr}
 547              	.LCFI9:
 548              		.cfi_def_cfa_offset 8
 549              		.cfi_offset 3, -8
 550              		.cfi_offset 14, -4
 147:../../Core/Src/syscalls.c **** 	errno = EAGAIN;
 551              		.loc 1 147 2 view .LVU103
 552 0002 FFF7FEFF 		bl	__errno
 553              	.LVL38:
 554              		.loc 1 147 8 is_stmt 0 view .LVU104
 555 0006 0B23     		movs	r3, #11
 556 0008 0360     		str	r3, [r0]
 148:../../Core/Src/syscalls.c **** 	return -1;
 557              		.loc 1 148 2 is_stmt 1 view .LVU105
 149:../../Core/Src/syscalls.c **** }
 558              		.loc 1 149 1 is_stmt 0 view .LVU106
 559 000a 4FF0FF30 		mov	r0, #-1
 560 000e 08BD     		pop	{r3, pc}
ARM GAS  /tmp/ccNefY6P.s 			page 13


 561              		.cfi_endproc
 562              	.LFE41:
 564              		.section	.text._execve,"ax",%progbits
 565              		.align	1
 566              		.global	_execve
 567              		.syntax unified
 568              		.thumb
 569              		.thumb_func
 571              	_execve:
 572              	.LVL39:
 573              	.LFB42:
 150:../../Core/Src/syscalls.c **** 
 151:../../Core/Src/syscalls.c **** int _execve(char *name, char **argv, char **env)
 152:../../Core/Src/syscalls.c **** {
 574              		.loc 1 152 1 is_stmt 1 view -0
 575              		.cfi_startproc
 576              		@ args = 0, pretend = 0, frame = 0
 577              		@ frame_needed = 0, uses_anonymous_args = 0
 578              		.loc 1 152 1 is_stmt 0 view .LVU108
 579 0000 08B5     		push	{r3, lr}
 580              	.LCFI10:
 581              		.cfi_def_cfa_offset 8
 582              		.cfi_offset 3, -8
 583              		.cfi_offset 14, -4
 153:../../Core/Src/syscalls.c **** 	errno = ENOMEM;
 584              		.loc 1 153 2 is_stmt 1 view .LVU109
 585 0002 FFF7FEFF 		bl	__errno
 586              	.LVL40:
 587              		.loc 1 153 8 is_stmt 0 view .LVU110
 588 0006 0C23     		movs	r3, #12
 589 0008 0360     		str	r3, [r0]
 154:../../Core/Src/syscalls.c **** 	return -1;
 590              		.loc 1 154 2 is_stmt 1 view .LVU111
 155:../../Core/Src/syscalls.c **** }
 591              		.loc 1 155 1 is_stmt 0 view .LVU112
 592 000a 4FF0FF30 		mov	r0, #-1
 593 000e 08BD     		pop	{r3, pc}
 594              		.cfi_endproc
 595              	.LFE42:
 597              		.global	environ
 598              		.global	__env
 599              		.section	.bss.__env,"aw",%nobits
 600              		.align	2
 603              	__env:
 604 0000 00000000 		.space	4
 605              		.section	.data.environ,"aw"
 606              		.align	2
 609              	environ:
 610 0000 00000000 		.word	__env
 611              		.weak	__io_putchar
 612              		.weak	__io_getchar
 613              		.text
 614              	.Letext0:
 615              		.file 2 "/home/joseluiz/Programs/gcc-arm-none-eabi-10.3-2021.10-x86_64-linux/arm-none-eabi/include
 616              		.file 3 "/home/joseluiz/Programs/gcc-arm-none-eabi-10.3-2021.10-x86_64-linux/arm-none-eabi/include
 617              		.file 4 "/home/joseluiz/Programs/gcc-arm-none-eabi-10.3-2021.10-x86_64-linux/arm-none-eabi/include
 618              		.file 5 "/home/joseluiz/Programs/gcc-arm-none-eabi-10.3-2021.10-x86_64-linux/arm-none-eabi/include
ARM GAS  /tmp/ccNefY6P.s 			page 14


 619              		.file 6 "/home/joseluiz/Programs/gcc-arm-none-eabi-10.3-2021.10-x86_64-linux/arm-none-eabi/include
 620              		.file 7 "/home/joseluiz/Programs/gcc-arm-none-eabi-10.3-2021.10-x86_64-linux/arm-none-eabi/include
 621              		.file 8 "/home/joseluiz/Programs/gcc-arm-none-eabi-10.3-2021.10-x86_64-linux/arm-none-eabi/include
 622              		.file 9 "/home/joseluiz/Programs/gcc-arm-none-eabi-10.3-2021.10-x86_64-linux/arm-none-eabi/include
ARM GAS  /tmp/ccNefY6P.s 			page 15

