ARM GAS  /tmp/cc1jw5pO.s 			page 1


   1              		.cpu cortex-m7
   2              		.arch armv7e-m
   3              		.fpu fpv5-d16
   4              		.eabi_attribute 28, 1
   5              		.eabi_attribute 20, 1
   6              		.eabi_attribute 21, 1
   7              		.eabi_attribute 23, 3
   8              		.eabi_attribute 24, 1
   9              		.eabi_attribute 25, 1
  10              		.eabi_attribute 26, 1
  11              		.eabi_attribute 30, 1
  12              		.eabi_attribute 34, 1
  13              		.eabi_attribute 18, 4
  14              		.file	"usbd_desc.c"
  15              		.text
  16              	.Ltext0:
  17              		.cfi_sections	.debug_frame
  18              		.section	.text.USBD_FS_DeviceDescriptor,"ax",%progbits
  19              		.align	1
  20              		.global	USBD_FS_DeviceDescriptor
  21              		.syntax unified
  22              		.thumb
  23              		.thumb_func
  25              	USBD_FS_DeviceDescriptor:
  26              	.LVL0:
  27              	.LFB145:
  28              		.file 1 "Core/Src/usbd_desc.c"
   1:Core/Src/usbd_desc.c **** /* USER CODE BEGIN Header */
   2:Core/Src/usbd_desc.c **** /**
   3:Core/Src/usbd_desc.c ****   ******************************************************************************
   4:Core/Src/usbd_desc.c ****   * @file           : App/usbd_desc.c
   5:Core/Src/usbd_desc.c ****   * @version        : v2.0_Cube
   6:Core/Src/usbd_desc.c ****   * @brief          : This file implements the USB device descriptors.
   7:Core/Src/usbd_desc.c ****   ******************************************************************************
   8:Core/Src/usbd_desc.c ****   * @attention
   9:Core/Src/usbd_desc.c ****   *
  10:Core/Src/usbd_desc.c ****   * Copyright (c) 2022 STMicroelectronics.
  11:Core/Src/usbd_desc.c ****   * All rights reserved.
  12:Core/Src/usbd_desc.c ****   *
  13:Core/Src/usbd_desc.c ****   * This software is licensed under terms that can be found in the LICENSE file
  14:Core/Src/usbd_desc.c ****   * in the root directory of this software component.
  15:Core/Src/usbd_desc.c ****   * If no LICENSE file comes with this software, it is provided AS-IS.
  16:Core/Src/usbd_desc.c ****   *
  17:Core/Src/usbd_desc.c ****   ******************************************************************************
  18:Core/Src/usbd_desc.c ****   */
  19:Core/Src/usbd_desc.c **** /* USER CODE END Header */
  20:Core/Src/usbd_desc.c **** 
  21:Core/Src/usbd_desc.c **** /* Includes ------------------------------------------------------------------*/
  22:Core/Src/usbd_desc.c **** #include "usbd_core.h"
  23:Core/Src/usbd_desc.c **** #include "usbd_desc.h"
  24:Core/Src/usbd_desc.c **** #include "usbd_conf.h"
  25:Core/Src/usbd_desc.c **** #include "main.h"
  26:Core/Src/usbd_desc.c **** #include "board.h"
  27:Core/Src/usbd_desc.c **** 
  28:Core/Src/usbd_desc.c **** /* USER CODE BEGIN INCLUDE */
  29:Core/Src/usbd_desc.c **** 
  30:Core/Src/usbd_desc.c **** /* USER CODE END INCLUDE */
ARM GAS  /tmp/cc1jw5pO.s 			page 2


  31:Core/Src/usbd_desc.c **** 
  32:Core/Src/usbd_desc.c **** /* Private typedef -----------------------------------------------------------*/
  33:Core/Src/usbd_desc.c **** /* Private define ------------------------------------------------------------*/
  34:Core/Src/usbd_desc.c **** /* Private macro -------------------------------------------------------------*/
  35:Core/Src/usbd_desc.c **** 
  36:Core/Src/usbd_desc.c **** /* USER CODE BEGIN PV */
  37:Core/Src/usbd_desc.c **** /* Private variables ---------------------------------------------------------*/
  38:Core/Src/usbd_desc.c **** extern uint8_t USBD_DescBuf[USBD_MAX_STR_DESC_SIZ];
  39:Core/Src/usbd_desc.c **** 
  40:Core/Src/usbd_desc.c **** /* USER CODE END PV */
  41:Core/Src/usbd_desc.c **** 
  42:Core/Src/usbd_desc.c **** /** @addtogroup STM32_USB_OTG_DEVICE_LIBRARY
  43:Core/Src/usbd_desc.c ****   * @{
  44:Core/Src/usbd_desc.c ****   */
  45:Core/Src/usbd_desc.c **** 
  46:Core/Src/usbd_desc.c **** /** @addtogroup USBD_DESC
  47:Core/Src/usbd_desc.c ****   * @{
  48:Core/Src/usbd_desc.c ****   */
  49:Core/Src/usbd_desc.c **** 
  50:Core/Src/usbd_desc.c **** /** @defgroup USBD_DESC_Private_TypesDefinitions USBD_DESC_Private_TypesDefinitions
  51:Core/Src/usbd_desc.c ****   * @brief Private types.
  52:Core/Src/usbd_desc.c ****   * @{
  53:Core/Src/usbd_desc.c ****   */
  54:Core/Src/usbd_desc.c **** 
  55:Core/Src/usbd_desc.c **** /* USER CODE BEGIN PRIVATE_TYPES */
  56:Core/Src/usbd_desc.c **** 
  57:Core/Src/usbd_desc.c **** /* USER CODE END PRIVATE_TYPES */
  58:Core/Src/usbd_desc.c **** 
  59:Core/Src/usbd_desc.c **** /**
  60:Core/Src/usbd_desc.c ****   * @}
  61:Core/Src/usbd_desc.c ****   */
  62:Core/Src/usbd_desc.c **** 
  63:Core/Src/usbd_desc.c **** /** @defgroup USBD_DESC_Private_Defines USBD_DESC_Private_Defines
  64:Core/Src/usbd_desc.c ****   * @brief Private defines.
  65:Core/Src/usbd_desc.c ****   * @{
  66:Core/Src/usbd_desc.c ****   */
  67:Core/Src/usbd_desc.c **** 
  68:Core/Src/usbd_desc.c **** /* USER CODE BEGIN PRIVATE_DEFINES */
  69:Core/Src/usbd_desc.c **** 
  70:Core/Src/usbd_desc.c **** /* USER CODE END PRIVATE_DEFINES */
  71:Core/Src/usbd_desc.c **** 
  72:Core/Src/usbd_desc.c **** /**
  73:Core/Src/usbd_desc.c ****   * @}
  74:Core/Src/usbd_desc.c ****   */
  75:Core/Src/usbd_desc.c **** 
  76:Core/Src/usbd_desc.c **** /* USER CODE BEGIN 0 */
  77:Core/Src/usbd_desc.c **** 
  78:Core/Src/usbd_desc.c **** /* USER CODE END 0 */
  79:Core/Src/usbd_desc.c **** 
  80:Core/Src/usbd_desc.c **** /** @defgroup USBD_DESC_Private_Macros USBD_DESC_Private_Macros
  81:Core/Src/usbd_desc.c ****   * @brief Private macros.
  82:Core/Src/usbd_desc.c ****   * @{
  83:Core/Src/usbd_desc.c ****   */
  84:Core/Src/usbd_desc.c **** 
  85:Core/Src/usbd_desc.c **** /* USER CODE BEGIN PRIVATE_MACRO */
  86:Core/Src/usbd_desc.c **** 
  87:Core/Src/usbd_desc.c **** /* USER CODE END PRIVATE_MACRO */
ARM GAS  /tmp/cc1jw5pO.s 			page 3


  88:Core/Src/usbd_desc.c **** 
  89:Core/Src/usbd_desc.c **** /**
  90:Core/Src/usbd_desc.c ****   * @}
  91:Core/Src/usbd_desc.c ****   */
  92:Core/Src/usbd_desc.c **** 
  93:Core/Src/usbd_desc.c **** /** @defgroup USBD_DESC_Private_FunctionPrototypes USBD_DESC_Private_FunctionPrototypes
  94:Core/Src/usbd_desc.c ****   * @brief Private functions declaration.
  95:Core/Src/usbd_desc.c ****   * @{
  96:Core/Src/usbd_desc.c ****   */
  97:Core/Src/usbd_desc.c **** static void IntToUnicode(char * pbuf, uint32_t value);
  98:Core/Src/usbd_desc.c **** /**
  99:Core/Src/usbd_desc.c ****   * @}
 100:Core/Src/usbd_desc.c ****   */
 101:Core/Src/usbd_desc.c **** 
 102:Core/Src/usbd_desc.c **** /** @defgroup USBD_DESC_Private_FunctionPrototypes USBD_DESC_Private_FunctionPrototypes
 103:Core/Src/usbd_desc.c ****   * @brief Private functions declaration for FS.
 104:Core/Src/usbd_desc.c ****   * @{
 105:Core/Src/usbd_desc.c ****   */
 106:Core/Src/usbd_desc.c **** 
 107:Core/Src/usbd_desc.c **** uint8_t * USBD_FS_DeviceDescriptor(USBD_SpeedTypeDef speed, uint16_t *length);
 108:Core/Src/usbd_desc.c **** uint8_t * USBD_FS_LangIDStrDescriptor(USBD_SpeedTypeDef speed, uint16_t *length);
 109:Core/Src/usbd_desc.c **** uint8_t * USBD_FS_ManufacturerStrDescriptor(USBD_SpeedTypeDef speed, uint16_t *length);
 110:Core/Src/usbd_desc.c **** uint8_t * USBD_FS_ProductStrDescriptor(USBD_SpeedTypeDef speed, uint16_t *length);
 111:Core/Src/usbd_desc.c **** uint8_t * USBD_FS_SerialStrDescriptor(USBD_SpeedTypeDef speed, uint16_t *length);
 112:Core/Src/usbd_desc.c **** uint8_t * USBD_FS_ConfigStrDescriptor(USBD_SpeedTypeDef speed, uint16_t *length);
 113:Core/Src/usbd_desc.c **** uint8_t * USBD_FS_InterfaceStrDescriptor(USBD_SpeedTypeDef speed, uint16_t *length);
 114:Core/Src/usbd_desc.c **** 
 115:Core/Src/usbd_desc.c **** /**
 116:Core/Src/usbd_desc.c ****   * @}
 117:Core/Src/usbd_desc.c ****   */
 118:Core/Src/usbd_desc.c **** 
 119:Core/Src/usbd_desc.c **** /** @defgroup USBD_DESC_Private_Variables USBD_DESC_Private_Variables
 120:Core/Src/usbd_desc.c ****   * @brief Private variables.
 121:Core/Src/usbd_desc.c ****   * @{
 122:Core/Src/usbd_desc.c ****   */
 123:Core/Src/usbd_desc.c **** USBD_DescriptorsTypeDef FS_Desc =
 124:Core/Src/usbd_desc.c **** {
 125:Core/Src/usbd_desc.c ****   USBD_FS_DeviceDescriptor,
 126:Core/Src/usbd_desc.c ****   USBD_FS_LangIDStrDescriptor,
 127:Core/Src/usbd_desc.c ****   USBD_FS_ManufacturerStrDescriptor,
 128:Core/Src/usbd_desc.c ****   USBD_FS_ProductStrDescriptor,
 129:Core/Src/usbd_desc.c ****   USBD_FS_SerialStrDescriptor,
 130:Core/Src/usbd_desc.c ****   USBD_FS_ConfigStrDescriptor,
 131:Core/Src/usbd_desc.c ****   USBD_FS_InterfaceStrDescriptor
 132:Core/Src/usbd_desc.c **** };
 133:Core/Src/usbd_desc.c **** 
 134:Core/Src/usbd_desc.c **** /* Internal string descriptor. */
 135:Core/Src/usbd_desc.c **** __ALIGN_BEGIN uint8_t USBD_StrDesc[USBD_MAX_STR_DESC_SIZ] __ALIGN_END;
 136:Core/Src/usbd_desc.c **** 
 137:Core/Src/usbd_desc.c **** /* USB_DeviceDescriptor */
 138:Core/Src/usbd_desc.c **** static const uint8_t USBD_FS_DeviceDesc[USB_LEN_DEV_DESC] = {
 139:Core/Src/usbd_desc.c ****   0x12,                       /* bLength */
 140:Core/Src/usbd_desc.c ****   USB_DESC_TYPE_DEVICE,       /* bDescriptorType */
 141:Core/Src/usbd_desc.c ****   0x00,                       /* bcdUSB */
 142:Core/Src/usbd_desc.c ****   0x02,
 143:Core/Src/usbd_desc.c ****   0x00,                       /* bDeviceClass */
 144:Core/Src/usbd_desc.c ****   0x00,                       /* bDeviceSubClass */
ARM GAS  /tmp/cc1jw5pO.s 			page 4


 145:Core/Src/usbd_desc.c ****   0x00,                       /* bDeviceProtocol */
 146:Core/Src/usbd_desc.c ****   USB_MAX_EP0_SIZE,           /* bMaxPacketSize */
 147:Core/Src/usbd_desc.c ****   LOBYTE(USBD_VID),           /* idVendor */
 148:Core/Src/usbd_desc.c ****   HIBYTE(USBD_VID),
 149:Core/Src/usbd_desc.c ****   LOBYTE(USBD_PID_FS),        /* idProduct */
 150:Core/Src/usbd_desc.c ****   HIBYTE(USBD_PID_FS),
 151:Core/Src/usbd_desc.c ****   0x00,                       /* bcdDevice rel. 0.00 */
 152:Core/Src/usbd_desc.c ****   0x00,
 153:Core/Src/usbd_desc.c ****   USBD_IDX_MFC_STR,           /* Index of manufacturer string */
 154:Core/Src/usbd_desc.c ****   USBD_IDX_PRODUCT_STR,       /* Index of product string */
 155:Core/Src/usbd_desc.c ****   USBD_IDX_SERIAL_STR,        /* Index of serial number string */
 156:Core/Src/usbd_desc.c ****   USBD_MAX_NUM_CONFIGURATION  /* bNumConfigurations */
 157:Core/Src/usbd_desc.c **** };
 158:Core/Src/usbd_desc.c **** 
 159:Core/Src/usbd_desc.c **** /* USB Standard Device Descriptor */
 160:Core/Src/usbd_desc.c **** static const uint8_t USBD_LangIDDesc[USB_LEN_LANGID_STR_DESC] =
 161:Core/Src/usbd_desc.c **** {
 162:Core/Src/usbd_desc.c ****   USB_LEN_LANGID_STR_DESC,
 163:Core/Src/usbd_desc.c ****   USB_DESC_TYPE_STRING,
 164:Core/Src/usbd_desc.c ****   LOBYTE(USBD_LANGID_STRING),
 165:Core/Src/usbd_desc.c ****   HIBYTE(USBD_LANGID_STRING),
 166:Core/Src/usbd_desc.c **** };
 167:Core/Src/usbd_desc.c **** 
 168:Core/Src/usbd_desc.c **** 
 169:Core/Src/usbd_desc.c **** __ALIGN_BEGIN uint8_t USBD_StringSerial[USB_SIZ_STRING_SERIAL] __ALIGN_END = {
 170:Core/Src/usbd_desc.c ****   USB_SIZ_STRING_SERIAL,
 171:Core/Src/usbd_desc.c ****   USB_DESC_TYPE_STRING,
 172:Core/Src/usbd_desc.c **** };
 173:Core/Src/usbd_desc.c **** /**
 174:Core/Src/usbd_desc.c ****   * @}
 175:Core/Src/usbd_desc.c ****   */
 176:Core/Src/usbd_desc.c **** 
 177:Core/Src/usbd_desc.c **** /** @defgroup USBD_DESC_Private_Functions USBD_DESC_Private_Functions
 178:Core/Src/usbd_desc.c ****   * @brief Private functions.
 179:Core/Src/usbd_desc.c ****   * @{
 180:Core/Src/usbd_desc.c ****   */
 181:Core/Src/usbd_desc.c **** 
 182:Core/Src/usbd_desc.c **** /**
 183:Core/Src/usbd_desc.c ****   * @brief  Return the device descriptor
 184:Core/Src/usbd_desc.c ****   * @param  speed : Current device speed
 185:Core/Src/usbd_desc.c ****   * @param  length : Pointer to data length variable
 186:Core/Src/usbd_desc.c ****   * @retval Pointer to descriptor buffer
 187:Core/Src/usbd_desc.c ****   */
 188:Core/Src/usbd_desc.c **** uint8_t * USBD_FS_DeviceDescriptor(USBD_SpeedTypeDef speed, uint16_t *length)
 189:Core/Src/usbd_desc.c **** {
  29              		.loc 1 189 1 view -0
  30              		.cfi_startproc
  31              		@ args = 0, pretend = 0, frame = 0
  32              		@ frame_needed = 0, uses_anonymous_args = 0
  33              		@ link register save eliminated.
  34              		.loc 1 189 1 is_stmt 0 view .LVU1
  35 0000 30B4     		push	{r4, r5}
  36              	.LCFI0:
  37              		.cfi_def_cfa_offset 8
  38              		.cfi_offset 4, -8
  39              		.cfi_offset 5, -4
 190:Core/Src/usbd_desc.c ****   UNUSED(speed);
ARM GAS  /tmp/cc1jw5pO.s 			page 5


  40              		.loc 1 190 3 is_stmt 1 view .LVU2
 191:Core/Src/usbd_desc.c ****   *length = sizeof(USBD_FS_DeviceDesc);
  41              		.loc 1 191 3 view .LVU3
  42              		.loc 1 191 11 is_stmt 0 view .LVU4
  43 0002 1223     		movs	r3, #18
  44 0004 0B80     		strh	r3, [r1]	@ movhi
 192:Core/Src/usbd_desc.c ****   memcpy(USBD_StrDesc, USBD_FS_DeviceDesc, sizeof(USBD_FS_DeviceDesc));
  45              		.loc 1 192 3 is_stmt 1 view .LVU5
  46 0006 064D     		ldr	r5, .L3
  47 0008 AC46     		mov	ip, r5
  48 000a 064C     		ldr	r4, .L3+4
  49 000c 0FCC     		ldmia	r4!, {r0, r1, r2, r3}
  50              	.LVL1:
  51              		.loc 1 192 3 is_stmt 0 view .LVU6
  52 000e ACE80F00 		stmia	ip!, {r0, r1, r2, r3}
  53 0012 2368     		ldr	r3, [r4]
  54 0014 ACF80030 		strh	r3, [ip]	@ movhi
 193:Core/Src/usbd_desc.c ****   return USBD_StrDesc;
  55              		.loc 1 193 3 is_stmt 1 view .LVU7
 194:Core/Src/usbd_desc.c **** }
  56              		.loc 1 194 1 is_stmt 0 view .LVU8
  57 0018 2846     		mov	r0, r5
  58 001a 30BC     		pop	{r4, r5}
  59              	.LCFI1:
  60              		.cfi_restore 5
  61              		.cfi_restore 4
  62              		.cfi_def_cfa_offset 0
  63 001c 7047     		bx	lr
  64              	.L4:
  65 001e 00BF     		.align	2
  66              	.L3:
  67 0020 00000000 		.word	.LANCHOR0
  68 0024 00000000 		.word	.LANCHOR1
  69              		.cfi_endproc
  70              	.LFE145:
  72              		.section	.text.USBD_FS_LangIDStrDescriptor,"ax",%progbits
  73              		.align	1
  74              		.global	USBD_FS_LangIDStrDescriptor
  75              		.syntax unified
  76              		.thumb
  77              		.thumb_func
  79              	USBD_FS_LangIDStrDescriptor:
  80              	.LVL2:
  81              	.LFB146:
 195:Core/Src/usbd_desc.c **** 
 196:Core/Src/usbd_desc.c **** /**
 197:Core/Src/usbd_desc.c ****   * @brief  Return the LangID string descriptor
 198:Core/Src/usbd_desc.c ****   * @param  speed : Current device speed
 199:Core/Src/usbd_desc.c ****   * @param  length : Pointer to data length variable
 200:Core/Src/usbd_desc.c ****   * @retval Pointer to descriptor buffer
 201:Core/Src/usbd_desc.c ****   */
 202:Core/Src/usbd_desc.c **** uint8_t * USBD_FS_LangIDStrDescriptor(USBD_SpeedTypeDef speed, uint16_t *length)
 203:Core/Src/usbd_desc.c **** {
  82              		.loc 1 203 1 is_stmt 1 view -0
  83              		.cfi_startproc
  84              		@ args = 0, pretend = 0, frame = 0
  85              		@ frame_needed = 0, uses_anonymous_args = 0
ARM GAS  /tmp/cc1jw5pO.s 			page 6


  86              		@ link register save eliminated.
 204:Core/Src/usbd_desc.c ****   UNUSED(speed);
  87              		.loc 1 204 3 view .LVU10
 205:Core/Src/usbd_desc.c ****   *length = sizeof(USBD_LangIDDesc);
  88              		.loc 1 205 3 view .LVU11
  89              		.loc 1 205 11 is_stmt 0 view .LVU12
  90 0000 0423     		movs	r3, #4
  91 0002 0B80     		strh	r3, [r1]	@ movhi
 206:Core/Src/usbd_desc.c ****   memcpy(USBD_StrDesc, USBD_LangIDDesc, sizeof(USBD_LangIDDesc));
  92              		.loc 1 206 3 is_stmt 1 view .LVU13
  93 0004 0148     		ldr	r0, .L6
  94              	.LVL3:
  95              		.loc 1 206 3 is_stmt 0 view .LVU14
  96 0006 024B     		ldr	r3, .L6+4
  97 0008 0360     		str	r3, [r0]
 207:Core/Src/usbd_desc.c ****   return USBD_StrDesc;
  98              		.loc 1 207 3 is_stmt 1 view .LVU15
 208:Core/Src/usbd_desc.c **** }
  99              		.loc 1 208 1 is_stmt 0 view .LVU16
 100 000a 7047     		bx	lr
 101              	.L7:
 102              		.align	2
 103              	.L6:
 104 000c 00000000 		.word	.LANCHOR0
 105 0010 04030904 		.word	67699460
 106              		.cfi_endproc
 107              	.LFE146:
 109              		.section	.text.IntToUnicode,"ax",%progbits
 110              		.align	1
 111              		.syntax unified
 112              		.thumb
 113              		.thumb_func
 115              	IntToUnicode:
 116              	.LVL4:
 117              	.LFB152:
 209:Core/Src/usbd_desc.c **** 
 210:Core/Src/usbd_desc.c **** /**
 211:Core/Src/usbd_desc.c ****   * @brief  Return the product string descriptor
 212:Core/Src/usbd_desc.c ****   * @param  speed : Current device speed
 213:Core/Src/usbd_desc.c ****   * @param  length : Pointer to data length variable
 214:Core/Src/usbd_desc.c ****   * @retval Pointer to descriptor buffer
 215:Core/Src/usbd_desc.c ****   */
 216:Core/Src/usbd_desc.c **** uint8_t * USBD_FS_ProductStrDescriptor(USBD_SpeedTypeDef speed, uint16_t *length)
 217:Core/Src/usbd_desc.c **** {
 218:Core/Src/usbd_desc.c ****   UNUSED(speed);
 219:Core/Src/usbd_desc.c ****   USBD_GetString(USBD_PRODUCT_STRING_FS, USBD_StrDesc, length);
 220:Core/Src/usbd_desc.c ****   return USBD_StrDesc;
 221:Core/Src/usbd_desc.c **** }
 222:Core/Src/usbd_desc.c **** 
 223:Core/Src/usbd_desc.c **** /**
 224:Core/Src/usbd_desc.c ****   * @brief  Return the manufacturer string descriptor
 225:Core/Src/usbd_desc.c ****   * @param  speed : Current device speed
 226:Core/Src/usbd_desc.c ****   * @param  length : Pointer to data length variable
 227:Core/Src/usbd_desc.c ****   * @retval Pointer to descriptor buffer
 228:Core/Src/usbd_desc.c ****   */
 229:Core/Src/usbd_desc.c **** uint8_t * USBD_FS_ManufacturerStrDescriptor(USBD_SpeedTypeDef speed, uint16_t *length)
 230:Core/Src/usbd_desc.c **** {
ARM GAS  /tmp/cc1jw5pO.s 			page 7


 231:Core/Src/usbd_desc.c ****   UNUSED(speed);
 232:Core/Src/usbd_desc.c ****   USBD_GetString((uint8_t *)USBD_MANUFACTURER_STRING, USBD_StrDesc, length);
 233:Core/Src/usbd_desc.c ****   return USBD_StrDesc;
 234:Core/Src/usbd_desc.c **** }
 235:Core/Src/usbd_desc.c **** 
 236:Core/Src/usbd_desc.c **** /**
 237:Core/Src/usbd_desc.c ****   * @brief  Return the serial number string descriptor
 238:Core/Src/usbd_desc.c ****   * @param  speed : Current device speed
 239:Core/Src/usbd_desc.c ****   * @param  length : Pointer to data length variable
 240:Core/Src/usbd_desc.c ****   * @retval Pointer to descriptor buffer
 241:Core/Src/usbd_desc.c ****   */
 242:Core/Src/usbd_desc.c **** uint8_t * USBD_FS_SerialStrDescriptor(USBD_SpeedTypeDef speed, uint16_t *length)
 243:Core/Src/usbd_desc.c **** {
 244:Core/Src/usbd_desc.c ****   UNUSED(speed);
 245:Core/Src/usbd_desc.c **** 
 246:Core/Src/usbd_desc.c ****   /* Update the serial number string descriptor with the data from the unique
 247:Core/Src/usbd_desc.c ****    * ID */
 248:Core/Src/usbd_desc.c ****   char buf[25];
 249:Core/Src/usbd_desc.c **** 
 250:Core/Src/usbd_desc.c ****   IntToUnicode(buf,    *(uint32_t*)(UID_BASE    ));
 251:Core/Src/usbd_desc.c ****   IntToUnicode(buf +  8, *(uint32_t*)(UID_BASE + 4));
 252:Core/Src/usbd_desc.c ****   IntToUnicode(buf + 16, *(uint32_t*)(UID_BASE + 8));
 253:Core/Src/usbd_desc.c **** 
 254:Core/Src/usbd_desc.c ****   USBD_GetString((uint8_t*)buf, USBD_StrDesc, length);
 255:Core/Src/usbd_desc.c ****   return USBD_StrDesc;
 256:Core/Src/usbd_desc.c **** 
 257:Core/Src/usbd_desc.c **** }
 258:Core/Src/usbd_desc.c **** 
 259:Core/Src/usbd_desc.c **** /**
 260:Core/Src/usbd_desc.c ****   * @brief  Return the configuration string descriptor
 261:Core/Src/usbd_desc.c ****   * @param  speed : Current device speed
 262:Core/Src/usbd_desc.c ****   * @param  length : Pointer to data length variable
 263:Core/Src/usbd_desc.c ****   * @retval Pointer to descriptor buffer
 264:Core/Src/usbd_desc.c ****   */
 265:Core/Src/usbd_desc.c **** uint8_t * USBD_FS_ConfigStrDescriptor(USBD_SpeedTypeDef speed, uint16_t *length)
 266:Core/Src/usbd_desc.c **** {
 267:Core/Src/usbd_desc.c ****   UNUSED(speed);
 268:Core/Src/usbd_desc.c ****   USBD_GetString(USBD_CONFIGURATION_STRING, USBD_StrDesc, length);
 269:Core/Src/usbd_desc.c ****   return USBD_StrDesc;
 270:Core/Src/usbd_desc.c **** }
 271:Core/Src/usbd_desc.c **** 
 272:Core/Src/usbd_desc.c **** /**
 273:Core/Src/usbd_desc.c ****   * @brief  Return the interface string descriptor
 274:Core/Src/usbd_desc.c ****   * @param  speed : Current device speed
 275:Core/Src/usbd_desc.c ****   * @param  length : Pointer to data length variable
 276:Core/Src/usbd_desc.c ****   * @retval Pointer to descriptor buffer
 277:Core/Src/usbd_desc.c ****   */
 278:Core/Src/usbd_desc.c **** uint8_t * USBD_FS_InterfaceStrDescriptor(USBD_SpeedTypeDef speed, uint16_t *length)
 279:Core/Src/usbd_desc.c **** {
 280:Core/Src/usbd_desc.c ****   UNUSED(speed);
 281:Core/Src/usbd_desc.c ****   USBD_GetString(USBD_INTERFACE_STRING, USBD_StrDesc, length);
 282:Core/Src/usbd_desc.c ****   return USBD_StrDesc;
 283:Core/Src/usbd_desc.c **** }
 284:Core/Src/usbd_desc.c **** 
 285:Core/Src/usbd_desc.c **** /**
 286:Core/Src/usbd_desc.c ****   * @brief  Convert Hex 32Bits value into char
 287:Core/Src/usbd_desc.c ****   * @param  value: value to convert
ARM GAS  /tmp/cc1jw5pO.s 			page 8


 288:Core/Src/usbd_desc.c ****   * @param  pbuf: pointer to the buffer
 289:Core/Src/usbd_desc.c ****   * @param  len: buffer length
 290:Core/Src/usbd_desc.c ****   * @retval None
 291:Core/Src/usbd_desc.c ****   */
 292:Core/Src/usbd_desc.c **** static void IntToUnicode(char * pbuf, uint32_t value)
 293:Core/Src/usbd_desc.c **** {
 118              		.loc 1 293 1 is_stmt 1 view -0
 119              		.cfi_startproc
 120              		@ args = 0, pretend = 0, frame = 0
 121              		@ frame_needed = 0, uses_anonymous_args = 0
 122              		@ link register save eliminated.
 294:Core/Src/usbd_desc.c ****   char *p = pbuf + 8;
 123              		.loc 1 294 3 view .LVU18
 295:Core/Src/usbd_desc.c **** 
 296:Core/Src/usbd_desc.c ****   *p-- = 0;
 124              		.loc 1 296 3 view .LVU19
 125              		.loc 1 296 5 is_stmt 0 view .LVU20
 126 0000 C21D     		adds	r2, r0, #7
 127              	.LVL5:
 128              		.loc 1 296 8 view .LVU21
 129 0002 0023     		movs	r3, #0
 130 0004 0372     		strb	r3, [r0, #8]
 297:Core/Src/usbd_desc.c **** 
 298:Core/Src/usbd_desc.c ****   while (p >= pbuf) {
 131              		.loc 1 298 3 is_stmt 1 view .LVU22
 132              		.loc 1 298 9 is_stmt 0 view .LVU23
 133 0006 03E0     		b	.L9
 134              	.LVL6:
 135              	.L10:
 136              	.LBB2:
 299:Core/Src/usbd_desc.c ****     uint8_t nybble = value & 0x0F;
 300:Core/Src/usbd_desc.c **** 
 301:Core/Src/usbd_desc.c ****     if (nybble < 10)
 302:Core/Src/usbd_desc.c ****       *p = '0' + nybble;
 303:Core/Src/usbd_desc.c ****     else
 304:Core/Src/usbd_desc.c ****       *p = 'A' + nybble - 10;
 137              		.loc 1 304 7 is_stmt 1 view .LVU24
 138              		.loc 1 304 25 is_stmt 0 view .LVU25
 139 0008 3733     		adds	r3, r3, #55
 140              	.LVL7:
 141              		.loc 1 304 10 view .LVU26
 142 000a 1370     		strb	r3, [r2]
 143              	.LVL8:
 144              	.L11:
 305:Core/Src/usbd_desc.c **** 
 306:Core/Src/usbd_desc.c ****     value >>= 4;
 145              		.loc 1 306 5 is_stmt 1 view .LVU27
 146              		.loc 1 306 11 is_stmt 0 view .LVU28
 147 000c 0909     		lsrs	r1, r1, #4
 148              	.LVL9:
 307:Core/Src/usbd_desc.c ****     p--;
 149              		.loc 1 307 5 is_stmt 1 view .LVU29
 150              		.loc 1 307 6 is_stmt 0 view .LVU30
 151 000e 013A     		subs	r2, r2, #1
 152              	.LVL10:
 153              	.L9:
 154              		.loc 1 307 6 view .LVU31
ARM GAS  /tmp/cc1jw5pO.s 			page 9


 155              	.LBE2:
 298:Core/Src/usbd_desc.c ****     uint8_t nybble = value & 0x0F;
 156              		.loc 1 298 9 is_stmt 1 view .LVU32
 157 0010 8242     		cmp	r2, r0
 158 0012 06D3     		bcc	.L13
 159              	.LBB3:
 299:Core/Src/usbd_desc.c **** 
 160              		.loc 1 299 5 view .LVU33
 299:Core/Src/usbd_desc.c **** 
 161              		.loc 1 299 13 is_stmt 0 view .LVU34
 162 0014 01F00F03 		and	r3, r1, #15
 163              	.LVL11:
 301:Core/Src/usbd_desc.c ****       *p = '0' + nybble;
 164              		.loc 1 301 5 is_stmt 1 view .LVU35
 301:Core/Src/usbd_desc.c ****       *p = '0' + nybble;
 165              		.loc 1 301 8 is_stmt 0 view .LVU36
 166 0018 092B     		cmp	r3, #9
 167 001a F5D8     		bhi	.L10
 302:Core/Src/usbd_desc.c ****     else
 168              		.loc 1 302 7 is_stmt 1 view .LVU37
 302:Core/Src/usbd_desc.c ****     else
 169              		.loc 1 302 16 is_stmt 0 view .LVU38
 170 001c 3033     		adds	r3, r3, #48
 171              	.LVL12:
 302:Core/Src/usbd_desc.c ****     else
 172              		.loc 1 302 10 view .LVU39
 173 001e 1370     		strb	r3, [r2]
 174 0020 F4E7     		b	.L11
 175              	.LVL13:
 176              	.L13:
 302:Core/Src/usbd_desc.c ****     else
 177              		.loc 1 302 10 view .LVU40
 178              	.LBE3:
 308:Core/Src/usbd_desc.c ****   }
 309:Core/Src/usbd_desc.c **** }
 179              		.loc 1 309 1 view .LVU41
 180 0022 7047     		bx	lr
 181              		.cfi_endproc
 182              	.LFE152:
 184              		.section	.rodata.USBD_FS_ProductStrDescriptor.str1.4,"aMS",%progbits,1
 185              		.align	2
 186              	.LC1:
 187 0000 67686574 		.ascii	"ghettocan_h7\000"
 187      746F6361 
 187      6E5F6837 
 187      00
 188              		.section	.text.USBD_FS_ProductStrDescriptor,"ax",%progbits
 189              		.align	1
 190              		.global	USBD_FS_ProductStrDescriptor
 191              		.syntax unified
 192              		.thumb
 193              		.thumb_func
 195              	USBD_FS_ProductStrDescriptor:
 196              	.LVL14:
 197              	.LFB147:
 217:Core/Src/usbd_desc.c ****   UNUSED(speed);
 198              		.loc 1 217 1 is_stmt 1 view -0
ARM GAS  /tmp/cc1jw5pO.s 			page 10


 199              		.cfi_startproc
 200              		@ args = 0, pretend = 0, frame = 0
 201              		@ frame_needed = 0, uses_anonymous_args = 0
 217:Core/Src/usbd_desc.c ****   UNUSED(speed);
 202              		.loc 1 217 1 is_stmt 0 view .LVU43
 203 0000 10B5     		push	{r4, lr}
 204              	.LCFI2:
 205              		.cfi_def_cfa_offset 8
 206              		.cfi_offset 4, -8
 207              		.cfi_offset 14, -4
 208 0002 0A46     		mov	r2, r1
 218:Core/Src/usbd_desc.c ****   USBD_GetString(USBD_PRODUCT_STRING_FS, USBD_StrDesc, length);
 209              		.loc 1 218 3 is_stmt 1 view .LVU44
 219:Core/Src/usbd_desc.c ****   return USBD_StrDesc;
 210              		.loc 1 219 3 view .LVU45
 211 0004 034C     		ldr	r4, .L16
 212 0006 2146     		mov	r1, r4
 213              	.LVL15:
 219:Core/Src/usbd_desc.c ****   return USBD_StrDesc;
 214              		.loc 1 219 3 is_stmt 0 view .LVU46
 215 0008 0348     		ldr	r0, .L16+4
 216              	.LVL16:
 219:Core/Src/usbd_desc.c ****   return USBD_StrDesc;
 217              		.loc 1 219 3 view .LVU47
 218 000a FFF7FEFF 		bl	USBD_GetString
 219              	.LVL17:
 220:Core/Src/usbd_desc.c **** }
 220              		.loc 1 220 3 is_stmt 1 view .LVU48
 221:Core/Src/usbd_desc.c **** 
 221              		.loc 1 221 1 is_stmt 0 view .LVU49
 222 000e 2046     		mov	r0, r4
 223 0010 10BD     		pop	{r4, pc}
 224              	.L17:
 225 0012 00BF     		.align	2
 226              	.L16:
 227 0014 00000000 		.word	.LANCHOR0
 228 0018 00000000 		.word	.LC1
 229              		.cfi_endproc
 230              	.LFE147:
 232              		.section	.rodata.USBD_FS_ManufacturerStrDescriptor.str1.4,"aMS",%progbits,1
 233              		.align	2
 234              	.LC2:
 235 0000 62756467 		.ascii	"budgetcan.io\000"
 235      65746361 
 235      6E2E696F 
 235      00
 236              		.section	.text.USBD_FS_ManufacturerStrDescriptor,"ax",%progbits
 237              		.align	1
 238              		.global	USBD_FS_ManufacturerStrDescriptor
 239              		.syntax unified
 240              		.thumb
 241              		.thumb_func
 243              	USBD_FS_ManufacturerStrDescriptor:
 244              	.LVL18:
 245              	.LFB148:
 230:Core/Src/usbd_desc.c ****   UNUSED(speed);
 246              		.loc 1 230 1 is_stmt 1 view -0
ARM GAS  /tmp/cc1jw5pO.s 			page 11


 247              		.cfi_startproc
 248              		@ args = 0, pretend = 0, frame = 0
 249              		@ frame_needed = 0, uses_anonymous_args = 0
 230:Core/Src/usbd_desc.c ****   UNUSED(speed);
 250              		.loc 1 230 1 is_stmt 0 view .LVU51
 251 0000 10B5     		push	{r4, lr}
 252              	.LCFI3:
 253              		.cfi_def_cfa_offset 8
 254              		.cfi_offset 4, -8
 255              		.cfi_offset 14, -4
 256 0002 0A46     		mov	r2, r1
 231:Core/Src/usbd_desc.c ****   USBD_GetString((uint8_t *)USBD_MANUFACTURER_STRING, USBD_StrDesc, length);
 257              		.loc 1 231 3 is_stmt 1 view .LVU52
 232:Core/Src/usbd_desc.c ****   return USBD_StrDesc;
 258              		.loc 1 232 3 view .LVU53
 259 0004 034C     		ldr	r4, .L20
 260 0006 2146     		mov	r1, r4
 261              	.LVL19:
 232:Core/Src/usbd_desc.c ****   return USBD_StrDesc;
 262              		.loc 1 232 3 is_stmt 0 view .LVU54
 263 0008 0348     		ldr	r0, .L20+4
 264              	.LVL20:
 232:Core/Src/usbd_desc.c ****   return USBD_StrDesc;
 265              		.loc 1 232 3 view .LVU55
 266 000a FFF7FEFF 		bl	USBD_GetString
 267              	.LVL21:
 233:Core/Src/usbd_desc.c **** }
 268              		.loc 1 233 3 is_stmt 1 view .LVU56
 234:Core/Src/usbd_desc.c **** 
 269              		.loc 1 234 1 is_stmt 0 view .LVU57
 270 000e 2046     		mov	r0, r4
 271 0010 10BD     		pop	{r4, pc}
 272              	.L21:
 273 0012 00BF     		.align	2
 274              	.L20:
 275 0014 00000000 		.word	.LANCHOR0
 276 0018 00000000 		.word	.LC2
 277              		.cfi_endproc
 278              	.LFE148:
 280              		.section	.text.USBD_FS_SerialStrDescriptor,"ax",%progbits
 281              		.align	1
 282              		.global	USBD_FS_SerialStrDescriptor
 283              		.syntax unified
 284              		.thumb
 285              		.thumb_func
 287              	USBD_FS_SerialStrDescriptor:
 288              	.LVL22:
 289              	.LFB149:
 243:Core/Src/usbd_desc.c ****   UNUSED(speed);
 290              		.loc 1 243 1 is_stmt 1 view -0
 291              		.cfi_startproc
 292              		@ args = 0, pretend = 0, frame = 32
 293              		@ frame_needed = 0, uses_anonymous_args = 0
 243:Core/Src/usbd_desc.c ****   UNUSED(speed);
 294              		.loc 1 243 1 is_stmt 0 view .LVU59
 295 0000 30B5     		push	{r4, r5, lr}
 296              	.LCFI4:
ARM GAS  /tmp/cc1jw5pO.s 			page 12


 297              		.cfi_def_cfa_offset 12
 298              		.cfi_offset 4, -12
 299              		.cfi_offset 5, -8
 300              		.cfi_offset 14, -4
 301 0002 89B0     		sub	sp, sp, #36
 302              	.LCFI5:
 303              		.cfi_def_cfa_offset 48
 304 0004 0C46     		mov	r4, r1
 244:Core/Src/usbd_desc.c **** 
 305              		.loc 1 244 3 is_stmt 1 view .LVU60
 248:Core/Src/usbd_desc.c **** 
 306              		.loc 1 248 3 view .LVU61
 250:Core/Src/usbd_desc.c ****   IntToUnicode(buf +  8, *(uint32_t*)(UID_BASE + 4));
 307              		.loc 1 250 3 view .LVU62
 308 0006 0C4D     		ldr	r5, .L24
 309 0008 D5F80018 		ldr	r1, [r5, #2048]
 310              	.LVL23:
 250:Core/Src/usbd_desc.c ****   IntToUnicode(buf +  8, *(uint32_t*)(UID_BASE + 4));
 311              		.loc 1 250 3 is_stmt 0 view .LVU63
 312 000c 01A8     		add	r0, sp, #4
 313              	.LVL24:
 250:Core/Src/usbd_desc.c ****   IntToUnicode(buf +  8, *(uint32_t*)(UID_BASE + 4));
 314              		.loc 1 250 3 view .LVU64
 315 000e FFF7FEFF 		bl	IntToUnicode
 316              	.LVL25:
 251:Core/Src/usbd_desc.c ****   IntToUnicode(buf + 16, *(uint32_t*)(UID_BASE + 8));
 317              		.loc 1 251 3 is_stmt 1 view .LVU65
 318 0012 D5F80418 		ldr	r1, [r5, #2052]
 319 0016 03A8     		add	r0, sp, #12
 320 0018 FFF7FEFF 		bl	IntToUnicode
 321              	.LVL26:
 252:Core/Src/usbd_desc.c **** 
 322              		.loc 1 252 3 view .LVU66
 323 001c D5F80818 		ldr	r1, [r5, #2056]
 324 0020 05A8     		add	r0, sp, #20
 325 0022 FFF7FEFF 		bl	IntToUnicode
 326              	.LVL27:
 254:Core/Src/usbd_desc.c ****   return USBD_StrDesc;
 327              		.loc 1 254 3 view .LVU67
 328 0026 054D     		ldr	r5, .L24+4
 329 0028 2246     		mov	r2, r4
 330 002a 2946     		mov	r1, r5
 331 002c 01A8     		add	r0, sp, #4
 332 002e FFF7FEFF 		bl	USBD_GetString
 333              	.LVL28:
 255:Core/Src/usbd_desc.c **** 
 334              		.loc 1 255 3 view .LVU68
 257:Core/Src/usbd_desc.c **** 
 335              		.loc 1 257 1 is_stmt 0 view .LVU69
 336 0032 2846     		mov	r0, r5
 337 0034 09B0     		add	sp, sp, #36
 338              	.LCFI6:
 339              		.cfi_def_cfa_offset 12
 340              		@ sp needed
 341 0036 30BD     		pop	{r4, r5, pc}
 342              	.LVL29:
 343              	.L25:
ARM GAS  /tmp/cc1jw5pO.s 			page 13


 257:Core/Src/usbd_desc.c **** 
 344              		.loc 1 257 1 view .LVU70
 345              		.align	2
 346              	.L24:
 347 0038 00E0F11F 		.word	535945216
 348 003c 00000000 		.word	.LANCHOR0
 349              		.cfi_endproc
 350              	.LFE149:
 352              		.section	.rodata.USBD_FS_ConfigStrDescriptor.str1.4,"aMS",%progbits,1
 353              		.align	2
 354              	.LC3:
 355 0000 67735F75 		.ascii	"gs_usb\000"
 355      736200
 356              		.section	.text.USBD_FS_ConfigStrDescriptor,"ax",%progbits
 357              		.align	1
 358              		.global	USBD_FS_ConfigStrDescriptor
 359              		.syntax unified
 360              		.thumb
 361              		.thumb_func
 363              	USBD_FS_ConfigStrDescriptor:
 364              	.LVL30:
 365              	.LFB150:
 266:Core/Src/usbd_desc.c ****   UNUSED(speed);
 366              		.loc 1 266 1 is_stmt 1 view -0
 367              		.cfi_startproc
 368              		@ args = 0, pretend = 0, frame = 0
 369              		@ frame_needed = 0, uses_anonymous_args = 0
 266:Core/Src/usbd_desc.c ****   UNUSED(speed);
 370              		.loc 1 266 1 is_stmt 0 view .LVU72
 371 0000 10B5     		push	{r4, lr}
 372              	.LCFI7:
 373              		.cfi_def_cfa_offset 8
 374              		.cfi_offset 4, -8
 375              		.cfi_offset 14, -4
 376 0002 0A46     		mov	r2, r1
 267:Core/Src/usbd_desc.c ****   USBD_GetString(USBD_CONFIGURATION_STRING, USBD_StrDesc, length);
 377              		.loc 1 267 3 is_stmt 1 view .LVU73
 268:Core/Src/usbd_desc.c ****   return USBD_StrDesc;
 378              		.loc 1 268 3 view .LVU74
 379 0004 034C     		ldr	r4, .L28
 380 0006 2146     		mov	r1, r4
 381              	.LVL31:
 268:Core/Src/usbd_desc.c ****   return USBD_StrDesc;
 382              		.loc 1 268 3 is_stmt 0 view .LVU75
 383 0008 0348     		ldr	r0, .L28+4
 384              	.LVL32:
 268:Core/Src/usbd_desc.c ****   return USBD_StrDesc;
 385              		.loc 1 268 3 view .LVU76
 386 000a FFF7FEFF 		bl	USBD_GetString
 387              	.LVL33:
 269:Core/Src/usbd_desc.c **** }
 388              		.loc 1 269 3 is_stmt 1 view .LVU77
 270:Core/Src/usbd_desc.c **** 
 389              		.loc 1 270 1 is_stmt 0 view .LVU78
 390 000e 2046     		mov	r0, r4
 391 0010 10BD     		pop	{r4, pc}
 392              	.L29:
ARM GAS  /tmp/cc1jw5pO.s 			page 14


 393 0012 00BF     		.align	2
 394              	.L28:
 395 0014 00000000 		.word	.LANCHOR0
 396 0018 00000000 		.word	.LC3
 397              		.cfi_endproc
 398              	.LFE150:
 400              		.section	.rodata.USBD_FS_InterfaceStrDescriptor.str1.4,"aMS",%progbits,1
 401              		.align	2
 402              	.LC4:
 403 0000 67735F75 		.ascii	"gs_usb interface\000"
 403      73622069 
 403      6E746572 
 403      66616365 
 403      00
 404              		.section	.text.USBD_FS_InterfaceStrDescriptor,"ax",%progbits
 405              		.align	1
 406              		.global	USBD_FS_InterfaceStrDescriptor
 407              		.syntax unified
 408              		.thumb
 409              		.thumb_func
 411              	USBD_FS_InterfaceStrDescriptor:
 412              	.LVL34:
 413              	.LFB151:
 279:Core/Src/usbd_desc.c ****   UNUSED(speed);
 414              		.loc 1 279 1 is_stmt 1 view -0
 415              		.cfi_startproc
 416              		@ args = 0, pretend = 0, frame = 0
 417              		@ frame_needed = 0, uses_anonymous_args = 0
 279:Core/Src/usbd_desc.c ****   UNUSED(speed);
 418              		.loc 1 279 1 is_stmt 0 view .LVU80
 419 0000 10B5     		push	{r4, lr}
 420              	.LCFI8:
 421              		.cfi_def_cfa_offset 8
 422              		.cfi_offset 4, -8
 423              		.cfi_offset 14, -4
 424 0002 0A46     		mov	r2, r1
 280:Core/Src/usbd_desc.c ****   USBD_GetString(USBD_INTERFACE_STRING, USBD_StrDesc, length);
 425              		.loc 1 280 3 is_stmt 1 view .LVU81
 281:Core/Src/usbd_desc.c ****   return USBD_StrDesc;
 426              		.loc 1 281 3 view .LVU82
 427 0004 034C     		ldr	r4, .L32
 428 0006 2146     		mov	r1, r4
 429              	.LVL35:
 281:Core/Src/usbd_desc.c ****   return USBD_StrDesc;
 430              		.loc 1 281 3 is_stmt 0 view .LVU83
 431 0008 0348     		ldr	r0, .L32+4
 432              	.LVL36:
 281:Core/Src/usbd_desc.c ****   return USBD_StrDesc;
 433              		.loc 1 281 3 view .LVU84
 434 000a FFF7FEFF 		bl	USBD_GetString
 435              	.LVL37:
 282:Core/Src/usbd_desc.c **** }
 436              		.loc 1 282 3 is_stmt 1 view .LVU85
 283:Core/Src/usbd_desc.c **** 
 437              		.loc 1 283 1 is_stmt 0 view .LVU86
 438 000e 2046     		mov	r0, r4
 439 0010 10BD     		pop	{r4, pc}
ARM GAS  /tmp/cc1jw5pO.s 			page 15


 440              	.L33:
 441 0012 00BF     		.align	2
 442              	.L32:
 443 0014 00000000 		.word	.LANCHOR0
 444 0018 00000000 		.word	.LC4
 445              		.cfi_endproc
 446              	.LFE151:
 448              		.global	USBD_StringSerial
 449              		.global	USBD_StrDesc
 450              		.global	FS_Desc
 451              		.section	.rodata
 452              		.align	2
 453              		.set	.LANCHOR1,. + 0
 454              	.LC0:
 455 0000 12010002 		.ascii	"\022\001\000\002\000\000\000@P\035o`\000\000\001\002"
 455      00000040 
 455      501D6F60 
 455      00000102 
 456 0010 0301     		.ascii	"\003\001"
 457              		.section	.bss.USBD_StrDesc,"aw",%nobits
 458              		.align	2
 459              		.set	.LANCHOR0,. + 0
 462              	USBD_StrDesc:
 463 0000 00000000 		.space	192
 463      00000000 
 463      00000000 
 463      00000000 
 463      00000000 
 464              		.section	.data.FS_Desc,"aw"
 465              		.align	2
 468              	FS_Desc:
 469 0000 00000000 		.word	USBD_FS_DeviceDescriptor
 470 0004 00000000 		.word	USBD_FS_LangIDStrDescriptor
 471 0008 00000000 		.word	USBD_FS_ManufacturerStrDescriptor
 472 000c 00000000 		.word	USBD_FS_ProductStrDescriptor
 473 0010 00000000 		.word	USBD_FS_SerialStrDescriptor
 474 0014 00000000 		.word	USBD_FS_ConfigStrDescriptor
 475 0018 00000000 		.word	USBD_FS_InterfaceStrDescriptor
 476              		.section	.data.USBD_StringSerial,"aw"
 477              		.align	2
 480              	USBD_StringSerial:
 481 0000 1A0300   		.ascii	"\032\003\000"
 482 0003 00000000 		.space	23
 482      00000000 
 482      00000000 
 482      00000000 
 482      00000000 
 483              		.text
 484              	.Letext0:
 485              		.file 2 "/home/joseluiz/Programs/gcc-arm-none-eabi-10.3-2021.10-x86_64-linux/arm-none-eabi/include
 486              		.file 3 "/home/joseluiz/Programs/gcc-arm-none-eabi-10.3-2021.10-x86_64-linux/arm-none-eabi/include
 487              		.file 4 "Middlewares/ST/STM32_USB_Device_Library/Core/Inc/usbd_def.h"
 488              		.file 5 "Core/Inc/usbd_desc.h"
 489              		.file 6 "Middlewares/ST/STM32_USB_Device_Library/Core/Inc/usbd_ctlreq.h"
ARM GAS  /tmp/cc1jw5pO.s 			page 16

