ARM GAS  /tmp/ccIJ8eX9.s 			page 1


   1              		.cpu cortex-m7
   2              		.arch armv7e-m
   3              		.fpu fpv5-d16
   4              		.eabi_attribute 28, 1
   5              		.eabi_attribute 20, 1
   6              		.eabi_attribute 21, 1
   7              		.eabi_attribute 23, 3
   8              		.eabi_attribute 24, 1
   9              		.eabi_attribute 25, 1
  10              		.eabi_attribute 26, 1
  11              		.eabi_attribute 30, 1
  12              		.eabi_attribute 34, 1
  13              		.eabi_attribute 18, 4
  14              		.file	"usbd_conf.c"
  15              		.text
  16              	.Ltext0:
  17              		.cfi_sections	.debug_frame
  18              		.section	.text.USBD_Get_USB_Status,"ax",%progbits
  19              		.align	1
  20              		.syntax unified
  21              		.thumb
  22              		.thumb_func
  24              	USBD_Get_USB_Status:
  25              	.LVL0:
  26              	.LFB178:
  27              		.file 1 "Core/Src/usbd_conf.c"
   1:Core/Src/usbd_conf.c **** /* USER CODE BEGIN Header */
   2:Core/Src/usbd_conf.c **** /**
   3:Core/Src/usbd_conf.c ****   ******************************************************************************
   4:Core/Src/usbd_conf.c ****   * @file           : Target/usbd_conf.c
   5:Core/Src/usbd_conf.c ****   * @version        : v2.0_Cube
   6:Core/Src/usbd_conf.c ****   * @brief          : This file implements the board support package for the USB device library
   7:Core/Src/usbd_conf.c ****   ******************************************************************************
   8:Core/Src/usbd_conf.c ****   * @attention
   9:Core/Src/usbd_conf.c ****   *
  10:Core/Src/usbd_conf.c ****   * Copyright (c) 2022 STMicroelectronics.
  11:Core/Src/usbd_conf.c ****   * All rights reserved.
  12:Core/Src/usbd_conf.c ****   *
  13:Core/Src/usbd_conf.c ****   * This software is licensed under terms that can be found in the LICENSE file
  14:Core/Src/usbd_conf.c ****   * in the root directory of this software component.
  15:Core/Src/usbd_conf.c ****   * If no LICENSE file comes with this software, it is provided AS-IS.
  16:Core/Src/usbd_conf.c ****   *
  17:Core/Src/usbd_conf.c ****   ******************************************************************************
  18:Core/Src/usbd_conf.c ****   */
  19:Core/Src/usbd_conf.c **** /* USER CODE END Header */
  20:Core/Src/usbd_conf.c **** 
  21:Core/Src/usbd_conf.c **** /* Includes ------------------------------------------------------------------*/
  22:Core/Src/usbd_conf.c **** #include "main.h"
  23:Core/Src/usbd_conf.c **** #include "usbd_def.h"
  24:Core/Src/usbd_conf.c **** #include "usbd_core.h"
  25:Core/Src/usbd_conf.c **** #include "usbd_gs_can.h"
  26:Core/Src/usbd_conf.c **** 
  27:Core/Src/usbd_conf.c **** /* USER CODE BEGIN Includes */
  28:Core/Src/usbd_conf.c **** 
  29:Core/Src/usbd_conf.c **** /* USER CODE END Includes */
  30:Core/Src/usbd_conf.c **** 
  31:Core/Src/usbd_conf.c **** /* Private typedef -----------------------------------------------------------*/
ARM GAS  /tmp/ccIJ8eX9.s 			page 2


  32:Core/Src/usbd_conf.c **** /* Private define ------------------------------------------------------------*/
  33:Core/Src/usbd_conf.c **** /* Private macro -------------------------------------------------------------*/
  34:Core/Src/usbd_conf.c **** 
  35:Core/Src/usbd_conf.c **** /* USER CODE BEGIN PV */
  36:Core/Src/usbd_conf.c **** /* Private variables ---------------------------------------------------------*/
  37:Core/Src/usbd_conf.c **** 
  38:Core/Src/usbd_conf.c **** /* USER CODE END PV */
  39:Core/Src/usbd_conf.c **** 
  40:Core/Src/usbd_conf.c **** #if defined(USB)
  41:Core/Src/usbd_conf.c **** PCD_HandleTypeDef hpcd_USB_FS;
  42:Core/Src/usbd_conf.c **** #elif defined(USB_DRD_FS)
  43:Core/Src/usbd_conf.c **** PCD_HandleTypeDef hpcd_USB_DRD_FS;
  44:Core/Src/usbd_conf.c **** #elif defined(USB_OTG_FS)
  45:Core/Src/usbd_conf.c **** PCD_HandleTypeDef hpcd_USB_OTG_FS;
  46:Core/Src/usbd_conf.c **** #endif
  47:Core/Src/usbd_conf.c **** 
  48:Core/Src/usbd_conf.c **** void Error_Handler(void);
  49:Core/Src/usbd_conf.c **** 
  50:Core/Src/usbd_conf.c **** /* USER CODE BEGIN 0 */
  51:Core/Src/usbd_conf.c **** 
  52:Core/Src/usbd_conf.c **** /* USER CODE END 0 */
  53:Core/Src/usbd_conf.c **** 
  54:Core/Src/usbd_conf.c **** /* USER CODE BEGIN PFP */
  55:Core/Src/usbd_conf.c **** /* Private function prototypes -----------------------------------------------*/
  56:Core/Src/usbd_conf.c **** 
  57:Core/Src/usbd_conf.c **** /* USER CODE END PFP */
  58:Core/Src/usbd_conf.c **** 
  59:Core/Src/usbd_conf.c **** /* Private functions ---------------------------------------------------------*/
  60:Core/Src/usbd_conf.c **** static USBD_StatusTypeDef USBD_Get_USB_Status(HAL_StatusTypeDef hal_status);
  61:Core/Src/usbd_conf.c **** /* USER CODE BEGIN 1 */
  62:Core/Src/usbd_conf.c **** static void SystemClockConfig_Resume(void);
  63:Core/Src/usbd_conf.c **** /* USER CODE END 1 */
  64:Core/Src/usbd_conf.c **** extern void SystemClock_Config(void);
  65:Core/Src/usbd_conf.c **** 
  66:Core/Src/usbd_conf.c **** /*******************************************************************************
  67:Core/Src/usbd_conf.c ****                        LL Driver Callbacks (PCD -> USB Device Library)
  68:Core/Src/usbd_conf.c **** *******************************************************************************/
  69:Core/Src/usbd_conf.c **** 
  70:Core/Src/usbd_conf.c **** /**
  71:Core/Src/usbd_conf.c ****   * @brief  Setup stage callback
  72:Core/Src/usbd_conf.c ****   * @param  hpcd: PCD handle
  73:Core/Src/usbd_conf.c ****   * @retval None
  74:Core/Src/usbd_conf.c ****   */
  75:Core/Src/usbd_conf.c **** void HAL_PCD_SetupStageCallback(PCD_HandleTypeDef *hpcd)
  76:Core/Src/usbd_conf.c **** {
  77:Core/Src/usbd_conf.c ****   USBD_HandleTypeDef *pdev = (USBD_HandleTypeDef*)hpcd->pData;
  78:Core/Src/usbd_conf.c **** 	USBD_ParseSetupRequest((USBD_SetupReqTypedef*)&pdev->request, (uint8_t*)hpcd->Setup);
  79:Core/Src/usbd_conf.c **** 
  80:Core/Src/usbd_conf.c **** 	bool request_was_handled = false;
  81:Core/Src/usbd_conf.c **** 
  82:Core/Src/usbd_conf.c **** 	if ((pdev->request.bmRequest & 0x1F) == USB_REQ_RECIPIENT_DEVICE ) { // device request
  83:Core/Src/usbd_conf.c **** 		request_was_handled = USBD_GS_CAN_CustomDeviceRequest(pdev, &pdev->request);
  84:Core/Src/usbd_conf.c **** 	}
  85:Core/Src/usbd_conf.c **** 
  86:Core/Src/usbd_conf.c **** 	if ((pdev->request.bmRequest & 0x1F) == USB_REQ_RECIPIENT_INTERFACE ) { // interface request
  87:Core/Src/usbd_conf.c **** 		request_was_handled = USBD_GS_CAN_CustomInterfaceRequest(pdev, &pdev->request);
  88:Core/Src/usbd_conf.c **** 	}
ARM GAS  /tmp/ccIJ8eX9.s 			page 3


  89:Core/Src/usbd_conf.c **** 
  90:Core/Src/usbd_conf.c **** 	if (!request_was_handled) {
  91:Core/Src/usbd_conf.c **** 		USBD_LL_SetupStage((USBD_HandleTypeDef*)hpcd->pData, (uint8_t *)hpcd->Setup);
  92:Core/Src/usbd_conf.c **** 	}
  93:Core/Src/usbd_conf.c **** }
  94:Core/Src/usbd_conf.c **** 
  95:Core/Src/usbd_conf.c **** /**
  96:Core/Src/usbd_conf.c ****   * @brief  Data Out stage callback.
  97:Core/Src/usbd_conf.c ****   * @param  hpcd: PCD handle
  98:Core/Src/usbd_conf.c ****   * @param  epnum: Endpoint number
  99:Core/Src/usbd_conf.c ****   * @retval None
 100:Core/Src/usbd_conf.c ****   */
 101:Core/Src/usbd_conf.c **** void HAL_PCD_DataOutStageCallback(PCD_HandleTypeDef *hpcd, uint8_t epnum)
 102:Core/Src/usbd_conf.c **** {
 103:Core/Src/usbd_conf.c ****   USBD_LL_DataOutStage((USBD_HandleTypeDef*)hpcd->pData, epnum, hpcd->OUT_ep[epnum].xfer_buff);
 104:Core/Src/usbd_conf.c **** }
 105:Core/Src/usbd_conf.c **** 
 106:Core/Src/usbd_conf.c **** /**
 107:Core/Src/usbd_conf.c ****   * @brief  Data In stage callback.
 108:Core/Src/usbd_conf.c ****   * @param  hpcd: PCD handle
 109:Core/Src/usbd_conf.c ****   * @param  epnum: Endpoint number
 110:Core/Src/usbd_conf.c ****   * @retval None
 111:Core/Src/usbd_conf.c ****   */
 112:Core/Src/usbd_conf.c **** void HAL_PCD_DataInStageCallback(PCD_HandleTypeDef *hpcd, uint8_t epnum)
 113:Core/Src/usbd_conf.c **** {
 114:Core/Src/usbd_conf.c ****   USBD_LL_DataInStage((USBD_HandleTypeDef*)hpcd->pData, epnum, hpcd->IN_ep[epnum].xfer_buff);
 115:Core/Src/usbd_conf.c **** }
 116:Core/Src/usbd_conf.c **** 
 117:Core/Src/usbd_conf.c **** /**
 118:Core/Src/usbd_conf.c ****   * @brief  SOF callback.
 119:Core/Src/usbd_conf.c ****   * @param  hpcd: PCD handle
 120:Core/Src/usbd_conf.c ****   * @retval None
 121:Core/Src/usbd_conf.c ****   */
 122:Core/Src/usbd_conf.c **** void HAL_PCD_SOFCallback(PCD_HandleTypeDef *hpcd)
 123:Core/Src/usbd_conf.c **** {
 124:Core/Src/usbd_conf.c ****   USBD_LL_SOF((USBD_HandleTypeDef*)hpcd->pData);
 125:Core/Src/usbd_conf.c **** }
 126:Core/Src/usbd_conf.c **** 
 127:Core/Src/usbd_conf.c **** /**
 128:Core/Src/usbd_conf.c ****   * @brief  Reset callback.
 129:Core/Src/usbd_conf.c ****   * @param  hpcd: PCD handle
 130:Core/Src/usbd_conf.c ****   * @retval None
 131:Core/Src/usbd_conf.c ****   */
 132:Core/Src/usbd_conf.c **** void HAL_PCD_ResetCallback(PCD_HandleTypeDef *hpcd)
 133:Core/Src/usbd_conf.c **** {
 134:Core/Src/usbd_conf.c ****   USBD_SpeedTypeDef speed = USBD_SPEED_FULL;
 135:Core/Src/usbd_conf.c **** 
 136:Core/Src/usbd_conf.c ****   if ( hpcd->Init.speed != PCD_SPEED_FULL)
 137:Core/Src/usbd_conf.c ****   {
 138:Core/Src/usbd_conf.c ****     Error_Handler();
 139:Core/Src/usbd_conf.c ****   }
 140:Core/Src/usbd_conf.c ****     /* Set Speed. */
 141:Core/Src/usbd_conf.c ****   USBD_LL_SetSpeed((USBD_HandleTypeDef*)hpcd->pData, speed);
 142:Core/Src/usbd_conf.c **** 
 143:Core/Src/usbd_conf.c ****   /* Reset Device. */
 144:Core/Src/usbd_conf.c ****   USBD_LL_Reset((USBD_HandleTypeDef*)hpcd->pData);
 145:Core/Src/usbd_conf.c **** }
ARM GAS  /tmp/ccIJ8eX9.s 			page 4


 146:Core/Src/usbd_conf.c **** 
 147:Core/Src/usbd_conf.c **** /**
 148:Core/Src/usbd_conf.c ****   * @brief  Suspend callback.
 149:Core/Src/usbd_conf.c ****   * When Low power mode is enabled the debug cannot be used (IAR, Keil doesn't support it)
 150:Core/Src/usbd_conf.c ****   * @param  hpcd: PCD handle
 151:Core/Src/usbd_conf.c ****   * @retval None
 152:Core/Src/usbd_conf.c ****   */
 153:Core/Src/usbd_conf.c **** void HAL_PCD_SuspendCallback(PCD_HandleTypeDef *hpcd)
 154:Core/Src/usbd_conf.c **** {
 155:Core/Src/usbd_conf.c ****   /* Inform USB library that core enters in suspend Mode. */
 156:Core/Src/usbd_conf.c ****   USBD_LL_Suspend((USBD_HandleTypeDef*)hpcd->pData);
 157:Core/Src/usbd_conf.c ****   /* Enter in STOP mode. */
 158:Core/Src/usbd_conf.c ****   /* USER CODE BEGIN 2 */
 159:Core/Src/usbd_conf.c ****   if (hpcd->Init.low_power_enable)
 160:Core/Src/usbd_conf.c ****   {
 161:Core/Src/usbd_conf.c ****     /* Set SLEEPDEEP bit and SleepOnExit of Cortex System Control Register. */
 162:Core/Src/usbd_conf.c ****     SCB->SCR |= (uint32_t)((uint32_t)(SCB_SCR_SLEEPDEEP_Msk | SCB_SCR_SLEEPONEXIT_Msk));
 163:Core/Src/usbd_conf.c ****   }
 164:Core/Src/usbd_conf.c ****   /* USER CODE END 2 */
 165:Core/Src/usbd_conf.c **** }
 166:Core/Src/usbd_conf.c **** 
 167:Core/Src/usbd_conf.c **** /**
 168:Core/Src/usbd_conf.c ****   * @brief  Resume callback.
 169:Core/Src/usbd_conf.c ****   * When Low power mode is enabled the debug cannot be used (IAR, Keil doesn't support it)
 170:Core/Src/usbd_conf.c ****   * @param  hpcd: PCD handle
 171:Core/Src/usbd_conf.c ****   * @retval None
 172:Core/Src/usbd_conf.c ****   */
 173:Core/Src/usbd_conf.c **** void HAL_PCD_ResumeCallback(PCD_HandleTypeDef *hpcd)
 174:Core/Src/usbd_conf.c **** {
 175:Core/Src/usbd_conf.c ****   /* USER CODE BEGIN 3 */
 176:Core/Src/usbd_conf.c ****   if (hpcd->Init.low_power_enable)
 177:Core/Src/usbd_conf.c ****   {
 178:Core/Src/usbd_conf.c ****     /* Reset SLEEPDEEP bit of Cortex System Control Register. */
 179:Core/Src/usbd_conf.c ****     SCB->SCR &= (uint32_t)~((uint32_t)(SCB_SCR_SLEEPDEEP_Msk | SCB_SCR_SLEEPONEXIT_Msk));
 180:Core/Src/usbd_conf.c ****     SystemClockConfig_Resume();
 181:Core/Src/usbd_conf.c ****   }
 182:Core/Src/usbd_conf.c ****   /* USER CODE END 3 */
 183:Core/Src/usbd_conf.c ****   USBD_LL_Resume((USBD_HandleTypeDef*)hpcd->pData);
 184:Core/Src/usbd_conf.c **** }
 185:Core/Src/usbd_conf.c **** 
 186:Core/Src/usbd_conf.c **** /**
 187:Core/Src/usbd_conf.c ****   * @brief  ISOOUTIncomplete callback.
 188:Core/Src/usbd_conf.c ****   * @param  hpcd: PCD handle
 189:Core/Src/usbd_conf.c ****   * @param  epnum: Endpoint number
 190:Core/Src/usbd_conf.c ****   * @retval None
 191:Core/Src/usbd_conf.c ****   */
 192:Core/Src/usbd_conf.c **** void HAL_PCD_ISOOUTIncompleteCallback(PCD_HandleTypeDef *hpcd, uint8_t epnum)
 193:Core/Src/usbd_conf.c **** {
 194:Core/Src/usbd_conf.c ****   USBD_LL_IsoOUTIncomplete((USBD_HandleTypeDef*)hpcd->pData, epnum);
 195:Core/Src/usbd_conf.c **** }
 196:Core/Src/usbd_conf.c **** 
 197:Core/Src/usbd_conf.c **** /**
 198:Core/Src/usbd_conf.c ****   * @brief  ISOINIncomplete callback.
 199:Core/Src/usbd_conf.c ****   * @param  hpcd: PCD handle
 200:Core/Src/usbd_conf.c ****   * @param  epnum: Endpoint number
 201:Core/Src/usbd_conf.c ****   * @retval None
 202:Core/Src/usbd_conf.c ****   */
ARM GAS  /tmp/ccIJ8eX9.s 			page 5


 203:Core/Src/usbd_conf.c **** void HAL_PCD_ISOINIncompleteCallback(PCD_HandleTypeDef *hpcd, uint8_t epnum)
 204:Core/Src/usbd_conf.c **** {
 205:Core/Src/usbd_conf.c ****   USBD_LL_IsoINIncomplete((USBD_HandleTypeDef*)hpcd->pData, epnum);
 206:Core/Src/usbd_conf.c **** }
 207:Core/Src/usbd_conf.c **** 
 208:Core/Src/usbd_conf.c **** /**
 209:Core/Src/usbd_conf.c ****   * @brief  Connect callback.
 210:Core/Src/usbd_conf.c ****   * @param  hpcd: PCD handle
 211:Core/Src/usbd_conf.c ****   * @retval None
 212:Core/Src/usbd_conf.c ****   */
 213:Core/Src/usbd_conf.c **** void HAL_PCD_ConnectCallback(PCD_HandleTypeDef *hpcd)
 214:Core/Src/usbd_conf.c **** {
 215:Core/Src/usbd_conf.c ****   USBD_LL_DevConnected((USBD_HandleTypeDef*)hpcd->pData);
 216:Core/Src/usbd_conf.c **** }
 217:Core/Src/usbd_conf.c **** 
 218:Core/Src/usbd_conf.c **** /**
 219:Core/Src/usbd_conf.c ****   * @brief  Disconnect callback.
 220:Core/Src/usbd_conf.c ****   * @param  hpcd: PCD handle
 221:Core/Src/usbd_conf.c ****   * @retval None
 222:Core/Src/usbd_conf.c ****   */
 223:Core/Src/usbd_conf.c **** void HAL_PCD_DisconnectCallback(PCD_HandleTypeDef *hpcd)
 224:Core/Src/usbd_conf.c **** {
 225:Core/Src/usbd_conf.c ****   USBD_LL_DevDisconnected((USBD_HandleTypeDef*)hpcd->pData);
 226:Core/Src/usbd_conf.c **** }
 227:Core/Src/usbd_conf.c **** 
 228:Core/Src/usbd_conf.c **** /*******************************************************************************
 229:Core/Src/usbd_conf.c ****                        LL Driver Interface (USB Device Library --> PCD)
 230:Core/Src/usbd_conf.c **** *******************************************************************************/
 231:Core/Src/usbd_conf.c **** 
 232:Core/Src/usbd_conf.c **** /**
 233:Core/Src/usbd_conf.c ****   * @brief  Initializes the low level portion of the device driver.
 234:Core/Src/usbd_conf.c ****   * @param  pdev: Device handle
 235:Core/Src/usbd_conf.c ****   * @retval USBD status
 236:Core/Src/usbd_conf.c ****   */
 237:Core/Src/usbd_conf.c **** USBD_StatusTypeDef USBD_LL_Init(USBD_HandleTypeDef *pdev)
 238:Core/Src/usbd_conf.c **** {
 239:Core/Src/usbd_conf.c **** #if defined(USB)
 240:Core/Src/usbd_conf.c ****   /* Init USB Ip. */
 241:Core/Src/usbd_conf.c ****   hpcd_USB_FS.pData = pdev;
 242:Core/Src/usbd_conf.c ****   /* Link the driver to the stack. */
 243:Core/Src/usbd_conf.c ****   pdev->pData = &hpcd_USB_FS;
 244:Core/Src/usbd_conf.c **** 
 245:Core/Src/usbd_conf.c ****   hpcd_USB_FS.Instance = USB;
 246:Core/Src/usbd_conf.c ****   hpcd_USB_FS.Init.dev_endpoints = 5;
 247:Core/Src/usbd_conf.c ****   hpcd_USB_FS.Init.speed = PCD_SPEED_FULL;
 248:Core/Src/usbd_conf.c ****   hpcd_USB_FS.Init.phy_itface = PCD_PHY_EMBEDDED;
 249:Core/Src/usbd_conf.c ****   hpcd_USB_FS.Init.low_power_enable = DISABLE;
 250:Core/Src/usbd_conf.c ****   hpcd_USB_FS.Init.lpm_enable = DISABLE;
 251:Core/Src/usbd_conf.c ****   hpcd_USB_FS.Init.battery_charging_enable = DISABLE;
 252:Core/Src/usbd_conf.c ****   if (HAL_PCD_Init(&hpcd_USB_FS) != HAL_OK)
 253:Core/Src/usbd_conf.c ****   {
 254:Core/Src/usbd_conf.c ****     Error_Handler( );
 255:Core/Src/usbd_conf.c ****   }
 256:Core/Src/usbd_conf.c **** #elif defined(USB_DRD_FS)
 257:Core/Src/usbd_conf.c ****   /* Init USB Ip. */
 258:Core/Src/usbd_conf.c ****   hpcd_USB_DRD_FS.pData = pdev;
 259:Core/Src/usbd_conf.c ****   /* Link the driver to the stack. */
ARM GAS  /tmp/ccIJ8eX9.s 			page 6


 260:Core/Src/usbd_conf.c ****   pdev->pData = &hpcd_USB_DRD_FS;
 261:Core/Src/usbd_conf.c **** 
 262:Core/Src/usbd_conf.c ****   hpcd_USB_DRD_FS.Instance = USB_DRD_FS;
 263:Core/Src/usbd_conf.c ****   hpcd_USB_DRD_FS.Init.dev_endpoints = 5;
 264:Core/Src/usbd_conf.c ****   hpcd_USB_DRD_FS.Init.Host_channels = 0;
 265:Core/Src/usbd_conf.c ****   hpcd_USB_DRD_FS.Init.speed = USBD_FS_SPEED;
 266:Core/Src/usbd_conf.c ****   hpcd_USB_DRD_FS.Init.phy_itface = PCD_PHY_EMBEDDED;
 267:Core/Src/usbd_conf.c ****   hpcd_USB_DRD_FS.Init.Sof_enable = DISABLE;
 268:Core/Src/usbd_conf.c ****   hpcd_USB_DRD_FS.Init.low_power_enable = DISABLE;
 269:Core/Src/usbd_conf.c ****   hpcd_USB_DRD_FS.Init.lpm_enable = DISABLE;
 270:Core/Src/usbd_conf.c ****   hpcd_USB_DRD_FS.Init.battery_charging_enable = DISABLE;
 271:Core/Src/usbd_conf.c ****   hpcd_USB_DRD_FS.Init.vbus_sensing_enable = DISABLE;
 272:Core/Src/usbd_conf.c ****   hpcd_USB_DRD_FS.Init.bulk_doublebuffer_enable = DISABLE;
 273:Core/Src/usbd_conf.c ****   hpcd_USB_DRD_FS.Init.iso_singlebuffer_enable = DISABLE;
 274:Core/Src/usbd_conf.c ****   if (HAL_PCD_Init(&hpcd_USB_DRD_FS) != HAL_OK)
 275:Core/Src/usbd_conf.c ****   {
 276:Core/Src/usbd_conf.c ****     Error_Handler( );
 277:Core/Src/usbd_conf.c ****   }
 278:Core/Src/usbd_conf.c **** #elif defined(USB_OTG_FS)
 279:Core/Src/usbd_conf.c ****   /* Init USB Ip. */
 280:Core/Src/usbd_conf.c ****   /* Link the driver to the stack. */
 281:Core/Src/usbd_conf.c ****   hpcd_USB_OTG_FS.pData = pdev;
 282:Core/Src/usbd_conf.c ****   pdev->pData = &hpcd_USB_OTG_FS;
 283:Core/Src/usbd_conf.c **** 
 284:Core/Src/usbd_conf.c ****   hpcd_USB_OTG_FS.Instance = USB_OTG_FS;
 285:Core/Src/usbd_conf.c ****   hpcd_USB_OTG_FS.Init.dev_endpoints = 5;
 286:Core/Src/usbd_conf.c ****   hpcd_USB_OTG_FS.Init.speed = PCD_SPEED_FULL;
 287:Core/Src/usbd_conf.c ****   hpcd_USB_OTG_FS.Init.dma_enable = DISABLE;
 288:Core/Src/usbd_conf.c ****   hpcd_USB_OTG_FS.Init.phy_itface = PCD_PHY_EMBEDDED;
 289:Core/Src/usbd_conf.c ****   hpcd_USB_OTG_FS.Init.Sof_enable = DISABLE;
 290:Core/Src/usbd_conf.c ****   hpcd_USB_OTG_FS.Init.low_power_enable = DISABLE;
 291:Core/Src/usbd_conf.c ****   hpcd_USB_OTG_FS.Init.lpm_enable = DISABLE;
 292:Core/Src/usbd_conf.c ****   hpcd_USB_OTG_FS.Init.battery_charging_enable = DISABLE;
 293:Core/Src/usbd_conf.c ****   hpcd_USB_OTG_FS.Init.vbus_sensing_enable = DISABLE;
 294:Core/Src/usbd_conf.c ****   hpcd_USB_OTG_FS.Init.use_dedicated_ep1 = DISABLE;
 295:Core/Src/usbd_conf.c ****   if (HAL_PCD_Init(&hpcd_USB_OTG_FS) != HAL_OK)
 296:Core/Src/usbd_conf.c ****   {
 297:Core/Src/usbd_conf.c ****     Error_Handler();
 298:Core/Src/usbd_conf.c ****   }
 299:Core/Src/usbd_conf.c **** #endif
 300:Core/Src/usbd_conf.c **** 
 301:Core/Src/usbd_conf.c **** #if defined(USB_OTG_FS)
 302:Core/Src/usbd_conf.c ****   HAL_PCDEx_SetRxFiFo(&hpcd_USB_OTG_FS, 0x80);
 303:Core/Src/usbd_conf.c ****   HAL_PCDEx_SetTxFiFo(&hpcd_USB_OTG_FS, 0, 0x40);
 304:Core/Src/usbd_conf.c ****   HAL_PCDEx_SetTxFiFo(&hpcd_USB_OTG_FS, 1, 0x80);
 305:Core/Src/usbd_conf.c **** #else
 306:Core/Src/usbd_conf.c ****   HAL_PCDEx_PMAConfig((PCD_HandleTypeDef*)pdev->pData, 0x00, PCD_SNG_BUF, 0x18);
 307:Core/Src/usbd_conf.c ****   HAL_PCDEx_PMAConfig((PCD_HandleTypeDef*)pdev->pData, 0x80, PCD_SNG_BUF, 0x58);
 308:Core/Src/usbd_conf.c ****   HAL_PCDEx_PMAConfig((PCD_HandleTypeDef*)pdev->pData, 0x81, PCD_SNG_BUF, 0xD8);
 309:Core/Src/usbd_conf.c ****   HAL_PCDEx_PMAConfig((PCD_HandleTypeDef*)pdev->pData, 0x02, PCD_SNG_BUF, 0x118);
 310:Core/Src/usbd_conf.c **** #endif
 311:Core/Src/usbd_conf.c **** 
 312:Core/Src/usbd_conf.c ****   return USBD_OK;
 313:Core/Src/usbd_conf.c **** }
 314:Core/Src/usbd_conf.c **** 
 315:Core/Src/usbd_conf.c **** /**
 316:Core/Src/usbd_conf.c ****   * @brief  De-Initializes the low level portion of the device driver.
ARM GAS  /tmp/ccIJ8eX9.s 			page 7


 317:Core/Src/usbd_conf.c ****   * @param  pdev: Device handle
 318:Core/Src/usbd_conf.c ****   * @retval USBD status
 319:Core/Src/usbd_conf.c ****   */
 320:Core/Src/usbd_conf.c **** USBD_StatusTypeDef USBD_LL_DeInit(USBD_HandleTypeDef *pdev)
 321:Core/Src/usbd_conf.c **** {
 322:Core/Src/usbd_conf.c ****   HAL_StatusTypeDef hal_status = HAL_OK;
 323:Core/Src/usbd_conf.c ****   USBD_StatusTypeDef usb_status = USBD_OK;
 324:Core/Src/usbd_conf.c **** 
 325:Core/Src/usbd_conf.c ****   hal_status = HAL_PCD_DeInit(pdev->pData);
 326:Core/Src/usbd_conf.c **** 
 327:Core/Src/usbd_conf.c ****   usb_status =  USBD_Get_USB_Status(hal_status);
 328:Core/Src/usbd_conf.c **** 
 329:Core/Src/usbd_conf.c ****   return usb_status;
 330:Core/Src/usbd_conf.c **** }
 331:Core/Src/usbd_conf.c **** 
 332:Core/Src/usbd_conf.c **** /**
 333:Core/Src/usbd_conf.c ****   * @brief  Starts the low level portion of the device driver.
 334:Core/Src/usbd_conf.c ****   * @param  pdev: Device handle
 335:Core/Src/usbd_conf.c ****   * @retval USBD status
 336:Core/Src/usbd_conf.c ****   */
 337:Core/Src/usbd_conf.c **** USBD_StatusTypeDef USBD_LL_Start(USBD_HandleTypeDef *pdev)
 338:Core/Src/usbd_conf.c **** {
 339:Core/Src/usbd_conf.c ****   HAL_StatusTypeDef hal_status = HAL_OK;
 340:Core/Src/usbd_conf.c ****   USBD_StatusTypeDef usb_status = USBD_OK;
 341:Core/Src/usbd_conf.c **** 
 342:Core/Src/usbd_conf.c ****   hal_status = HAL_PCD_Start(pdev->pData);
 343:Core/Src/usbd_conf.c **** 
 344:Core/Src/usbd_conf.c ****   usb_status =  USBD_Get_USB_Status(hal_status);
 345:Core/Src/usbd_conf.c **** 
 346:Core/Src/usbd_conf.c ****   return usb_status;
 347:Core/Src/usbd_conf.c **** }
 348:Core/Src/usbd_conf.c **** 
 349:Core/Src/usbd_conf.c **** /**
 350:Core/Src/usbd_conf.c ****   * @brief  Stops the low level portion of the device driver.
 351:Core/Src/usbd_conf.c ****   * @param  pdev: Device handle
 352:Core/Src/usbd_conf.c ****   * @retval USBD status
 353:Core/Src/usbd_conf.c ****   */
 354:Core/Src/usbd_conf.c **** USBD_StatusTypeDef USBD_LL_Stop(USBD_HandleTypeDef *pdev)
 355:Core/Src/usbd_conf.c **** {
 356:Core/Src/usbd_conf.c ****   HAL_StatusTypeDef hal_status = HAL_OK;
 357:Core/Src/usbd_conf.c ****   USBD_StatusTypeDef usb_status = USBD_OK;
 358:Core/Src/usbd_conf.c **** 
 359:Core/Src/usbd_conf.c ****   hal_status = HAL_PCD_Stop(pdev->pData);
 360:Core/Src/usbd_conf.c **** 
 361:Core/Src/usbd_conf.c ****   usb_status =  USBD_Get_USB_Status(hal_status);
 362:Core/Src/usbd_conf.c **** 
 363:Core/Src/usbd_conf.c ****   return usb_status;
 364:Core/Src/usbd_conf.c **** }
 365:Core/Src/usbd_conf.c **** 
 366:Core/Src/usbd_conf.c **** /**
 367:Core/Src/usbd_conf.c ****   * @brief  Opens an endpoint of the low level driver.
 368:Core/Src/usbd_conf.c ****   * @param  pdev: Device handle
 369:Core/Src/usbd_conf.c ****   * @param  ep_addr: Endpoint number
 370:Core/Src/usbd_conf.c ****   * @param  ep_type: Endpoint type
 371:Core/Src/usbd_conf.c ****   * @param  ep_mps: Endpoint max packet size
 372:Core/Src/usbd_conf.c ****   * @retval USBD status
 373:Core/Src/usbd_conf.c ****   */
ARM GAS  /tmp/ccIJ8eX9.s 			page 8


 374:Core/Src/usbd_conf.c **** USBD_StatusTypeDef USBD_LL_OpenEP(USBD_HandleTypeDef *pdev, uint8_t ep_addr, uint8_t ep_type, uint1
 375:Core/Src/usbd_conf.c **** {
 376:Core/Src/usbd_conf.c ****   HAL_StatusTypeDef hal_status = HAL_OK;
 377:Core/Src/usbd_conf.c ****   USBD_StatusTypeDef usb_status = USBD_OK;
 378:Core/Src/usbd_conf.c **** 
 379:Core/Src/usbd_conf.c ****   hal_status = HAL_PCD_EP_Open(pdev->pData, ep_addr, ep_mps, ep_type);
 380:Core/Src/usbd_conf.c **** 
 381:Core/Src/usbd_conf.c ****   usb_status =  USBD_Get_USB_Status(hal_status);
 382:Core/Src/usbd_conf.c **** 
 383:Core/Src/usbd_conf.c ****   return usb_status;
 384:Core/Src/usbd_conf.c **** }
 385:Core/Src/usbd_conf.c **** 
 386:Core/Src/usbd_conf.c **** /**
 387:Core/Src/usbd_conf.c ****   * @brief  Closes an endpoint of the low level driver.
 388:Core/Src/usbd_conf.c ****   * @param  pdev: Device handle
 389:Core/Src/usbd_conf.c ****   * @param  ep_addr: Endpoint number
 390:Core/Src/usbd_conf.c ****   * @retval USBD status
 391:Core/Src/usbd_conf.c ****   */
 392:Core/Src/usbd_conf.c **** USBD_StatusTypeDef USBD_LL_CloseEP(USBD_HandleTypeDef *pdev, uint8_t ep_addr)
 393:Core/Src/usbd_conf.c **** {
 394:Core/Src/usbd_conf.c ****   HAL_StatusTypeDef hal_status = HAL_OK;
 395:Core/Src/usbd_conf.c ****   USBD_StatusTypeDef usb_status = USBD_OK;
 396:Core/Src/usbd_conf.c **** 
 397:Core/Src/usbd_conf.c ****   hal_status = HAL_PCD_EP_Close(pdev->pData, ep_addr);
 398:Core/Src/usbd_conf.c **** 
 399:Core/Src/usbd_conf.c ****   usb_status =  USBD_Get_USB_Status(hal_status);
 400:Core/Src/usbd_conf.c **** 
 401:Core/Src/usbd_conf.c ****   return usb_status;
 402:Core/Src/usbd_conf.c **** }
 403:Core/Src/usbd_conf.c **** 
 404:Core/Src/usbd_conf.c **** /**
 405:Core/Src/usbd_conf.c ****   * @brief  Flushes an endpoint of the Low Level Driver.
 406:Core/Src/usbd_conf.c ****   * @param  pdev: Device handle
 407:Core/Src/usbd_conf.c ****   * @param  ep_addr: Endpoint number
 408:Core/Src/usbd_conf.c ****   * @retval USBD status
 409:Core/Src/usbd_conf.c ****   */
 410:Core/Src/usbd_conf.c **** USBD_StatusTypeDef USBD_LL_FlushEP(USBD_HandleTypeDef *pdev, uint8_t ep_addr)
 411:Core/Src/usbd_conf.c **** {
 412:Core/Src/usbd_conf.c ****   HAL_StatusTypeDef hal_status = HAL_OK;
 413:Core/Src/usbd_conf.c ****   USBD_StatusTypeDef usb_status = USBD_OK;
 414:Core/Src/usbd_conf.c **** 
 415:Core/Src/usbd_conf.c ****   hal_status = HAL_PCD_EP_Flush(pdev->pData, ep_addr);
 416:Core/Src/usbd_conf.c **** 
 417:Core/Src/usbd_conf.c ****   usb_status =  USBD_Get_USB_Status(hal_status);
 418:Core/Src/usbd_conf.c **** 
 419:Core/Src/usbd_conf.c ****   return usb_status;
 420:Core/Src/usbd_conf.c **** }
 421:Core/Src/usbd_conf.c **** 
 422:Core/Src/usbd_conf.c **** /**
 423:Core/Src/usbd_conf.c ****   * @brief  Sets a Stall condition on an endpoint of the Low Level Driver.
 424:Core/Src/usbd_conf.c ****   * @param  pdev: Device handle
 425:Core/Src/usbd_conf.c ****   * @param  ep_addr: Endpoint number
 426:Core/Src/usbd_conf.c ****   * @retval USBD status
 427:Core/Src/usbd_conf.c ****   */
 428:Core/Src/usbd_conf.c **** USBD_StatusTypeDef USBD_LL_StallEP(USBD_HandleTypeDef *pdev, uint8_t ep_addr)
 429:Core/Src/usbd_conf.c **** {
 430:Core/Src/usbd_conf.c ****   HAL_StatusTypeDef hal_status = HAL_OK;
ARM GAS  /tmp/ccIJ8eX9.s 			page 9


 431:Core/Src/usbd_conf.c ****   USBD_StatusTypeDef usb_status = USBD_OK;
 432:Core/Src/usbd_conf.c **** 
 433:Core/Src/usbd_conf.c ****   hal_status = HAL_PCD_EP_SetStall(pdev->pData, ep_addr);
 434:Core/Src/usbd_conf.c **** 
 435:Core/Src/usbd_conf.c ****   usb_status =  USBD_Get_USB_Status(hal_status);
 436:Core/Src/usbd_conf.c **** 
 437:Core/Src/usbd_conf.c ****   return usb_status;
 438:Core/Src/usbd_conf.c **** }
 439:Core/Src/usbd_conf.c **** 
 440:Core/Src/usbd_conf.c **** /**
 441:Core/Src/usbd_conf.c ****   * @brief  Clears a Stall condition on an endpoint of the Low Level Driver.
 442:Core/Src/usbd_conf.c ****   * @param  pdev: Device handle
 443:Core/Src/usbd_conf.c ****   * @param  ep_addr: Endpoint number
 444:Core/Src/usbd_conf.c ****   * @retval USBD status
 445:Core/Src/usbd_conf.c ****   */
 446:Core/Src/usbd_conf.c **** USBD_StatusTypeDef USBD_LL_ClearStallEP(USBD_HandleTypeDef *pdev, uint8_t ep_addr)
 447:Core/Src/usbd_conf.c **** {
 448:Core/Src/usbd_conf.c ****   HAL_StatusTypeDef hal_status = HAL_OK;
 449:Core/Src/usbd_conf.c ****   USBD_StatusTypeDef usb_status = USBD_OK;
 450:Core/Src/usbd_conf.c **** 
 451:Core/Src/usbd_conf.c ****   hal_status = HAL_PCD_EP_ClrStall(pdev->pData, ep_addr);
 452:Core/Src/usbd_conf.c **** 
 453:Core/Src/usbd_conf.c ****   usb_status =  USBD_Get_USB_Status(hal_status);
 454:Core/Src/usbd_conf.c **** 
 455:Core/Src/usbd_conf.c ****   return usb_status;
 456:Core/Src/usbd_conf.c **** }
 457:Core/Src/usbd_conf.c **** 
 458:Core/Src/usbd_conf.c **** /**
 459:Core/Src/usbd_conf.c ****   * @brief  Returns Stall condition.
 460:Core/Src/usbd_conf.c ****   * @param  pdev: Device handle
 461:Core/Src/usbd_conf.c ****   * @param  ep_addr: Endpoint number
 462:Core/Src/usbd_conf.c ****   * @retval Stall (1: Yes, 0: No)
 463:Core/Src/usbd_conf.c ****   */
 464:Core/Src/usbd_conf.c **** uint8_t USBD_LL_IsStallEP(USBD_HandleTypeDef *pdev, uint8_t ep_addr)
 465:Core/Src/usbd_conf.c **** {
 466:Core/Src/usbd_conf.c ****   PCD_HandleTypeDef *hpcd = (PCD_HandleTypeDef*) pdev->pData;
 467:Core/Src/usbd_conf.c **** 
 468:Core/Src/usbd_conf.c ****   if((ep_addr & 0x80) == 0x80)
 469:Core/Src/usbd_conf.c ****   {
 470:Core/Src/usbd_conf.c ****     return hpcd->IN_ep[ep_addr & 0x7F].is_stall;
 471:Core/Src/usbd_conf.c ****   }
 472:Core/Src/usbd_conf.c ****   else
 473:Core/Src/usbd_conf.c ****   {
 474:Core/Src/usbd_conf.c ****     return hpcd->OUT_ep[ep_addr & 0x7F].is_stall;
 475:Core/Src/usbd_conf.c ****   }
 476:Core/Src/usbd_conf.c **** }
 477:Core/Src/usbd_conf.c **** 
 478:Core/Src/usbd_conf.c **** /**
 479:Core/Src/usbd_conf.c ****   * @brief  Assigns a USB address to the device.
 480:Core/Src/usbd_conf.c ****   * @param  pdev: Device handle
 481:Core/Src/usbd_conf.c ****   * @param  dev_addr: Device address
 482:Core/Src/usbd_conf.c ****   * @retval USBD status
 483:Core/Src/usbd_conf.c ****   */
 484:Core/Src/usbd_conf.c **** USBD_StatusTypeDef USBD_LL_SetUSBAddress(USBD_HandleTypeDef *pdev, uint8_t dev_addr)
 485:Core/Src/usbd_conf.c **** {
 486:Core/Src/usbd_conf.c ****   HAL_StatusTypeDef hal_status = HAL_OK;
 487:Core/Src/usbd_conf.c ****   USBD_StatusTypeDef usb_status = USBD_OK;
ARM GAS  /tmp/ccIJ8eX9.s 			page 10


 488:Core/Src/usbd_conf.c **** 
 489:Core/Src/usbd_conf.c ****   hal_status = HAL_PCD_SetAddress(pdev->pData, dev_addr);
 490:Core/Src/usbd_conf.c **** 
 491:Core/Src/usbd_conf.c ****   usb_status =  USBD_Get_USB_Status(hal_status);
 492:Core/Src/usbd_conf.c **** 
 493:Core/Src/usbd_conf.c ****   return usb_status;
 494:Core/Src/usbd_conf.c **** }
 495:Core/Src/usbd_conf.c **** 
 496:Core/Src/usbd_conf.c **** /**
 497:Core/Src/usbd_conf.c ****   * @brief  Transmits data over an endpoint.
 498:Core/Src/usbd_conf.c ****   * @param  pdev: Device handle
 499:Core/Src/usbd_conf.c ****   * @param  ep_addr: Endpoint number
 500:Core/Src/usbd_conf.c ****   * @param  pbuf: Pointer to data to be sent
 501:Core/Src/usbd_conf.c ****   * @param  size: Data size
 502:Core/Src/usbd_conf.c ****   * @retval USBD status
 503:Core/Src/usbd_conf.c ****   */
 504:Core/Src/usbd_conf.c **** USBD_StatusTypeDef USBD_LL_Transmit(USBD_HandleTypeDef *pdev, uint8_t ep_addr, uint8_t *pbuf, uint3
 505:Core/Src/usbd_conf.c **** {
 506:Core/Src/usbd_conf.c ****   HAL_StatusTypeDef hal_status = HAL_OK;
 507:Core/Src/usbd_conf.c ****   USBD_StatusTypeDef usb_status = USBD_OK;
 508:Core/Src/usbd_conf.c **** 
 509:Core/Src/usbd_conf.c ****   hal_status = HAL_PCD_EP_Transmit(pdev->pData, ep_addr, pbuf, size);
 510:Core/Src/usbd_conf.c **** 
 511:Core/Src/usbd_conf.c ****   usb_status =  USBD_Get_USB_Status(hal_status);
 512:Core/Src/usbd_conf.c **** 
 513:Core/Src/usbd_conf.c ****   return usb_status;
 514:Core/Src/usbd_conf.c **** }
 515:Core/Src/usbd_conf.c **** 
 516:Core/Src/usbd_conf.c **** /**
 517:Core/Src/usbd_conf.c ****   * @brief  Prepares an endpoint for reception.
 518:Core/Src/usbd_conf.c ****   * @param  pdev: Device handle
 519:Core/Src/usbd_conf.c ****   * @param  ep_addr: Endpoint number
 520:Core/Src/usbd_conf.c ****   * @param  pbuf: Pointer to data to be received
 521:Core/Src/usbd_conf.c ****   * @param  size: Data size
 522:Core/Src/usbd_conf.c ****   * @retval USBD status
 523:Core/Src/usbd_conf.c ****   */
 524:Core/Src/usbd_conf.c **** USBD_StatusTypeDef USBD_LL_PrepareReceive(USBD_HandleTypeDef *pdev, uint8_t ep_addr, uint8_t *pbuf,
 525:Core/Src/usbd_conf.c **** {
 526:Core/Src/usbd_conf.c ****   HAL_StatusTypeDef hal_status = HAL_OK;
 527:Core/Src/usbd_conf.c ****   USBD_StatusTypeDef usb_status = USBD_OK;
 528:Core/Src/usbd_conf.c **** 
 529:Core/Src/usbd_conf.c ****   hal_status = HAL_PCD_EP_Receive(pdev->pData, ep_addr, pbuf, size);
 530:Core/Src/usbd_conf.c **** 
 531:Core/Src/usbd_conf.c ****   usb_status =  USBD_Get_USB_Status(hal_status);
 532:Core/Src/usbd_conf.c **** 
 533:Core/Src/usbd_conf.c ****   return usb_status;
 534:Core/Src/usbd_conf.c **** }
 535:Core/Src/usbd_conf.c **** 
 536:Core/Src/usbd_conf.c **** /**
 537:Core/Src/usbd_conf.c ****   * @brief  Returns the last transferred packet size.
 538:Core/Src/usbd_conf.c ****   * @param  pdev: Device handle
 539:Core/Src/usbd_conf.c ****   * @param  ep_addr: Endpoint number
 540:Core/Src/usbd_conf.c ****   * @retval Received Data Size
 541:Core/Src/usbd_conf.c ****   */
 542:Core/Src/usbd_conf.c **** uint32_t USBD_LL_GetRxDataSize(USBD_HandleTypeDef *pdev, uint8_t ep_addr)
 543:Core/Src/usbd_conf.c **** {
 544:Core/Src/usbd_conf.c ****   return HAL_PCD_EP_GetRxCount((PCD_HandleTypeDef*) pdev->pData, ep_addr);
ARM GAS  /tmp/ccIJ8eX9.s 			page 11


 545:Core/Src/usbd_conf.c **** }
 546:Core/Src/usbd_conf.c **** 
 547:Core/Src/usbd_conf.c **** /**
 548:Core/Src/usbd_conf.c ****   * @brief  Delays routine for the USB device library.
 549:Core/Src/usbd_conf.c ****   * @param  Delay: Delay in ms
 550:Core/Src/usbd_conf.c ****   * @retval None
 551:Core/Src/usbd_conf.c ****   */
 552:Core/Src/usbd_conf.c **** void USBD_LL_Delay(uint32_t Delay)
 553:Core/Src/usbd_conf.c **** {
 554:Core/Src/usbd_conf.c ****   HAL_Delay(Delay);
 555:Core/Src/usbd_conf.c **** }
 556:Core/Src/usbd_conf.c **** 
 557:Core/Src/usbd_conf.c **** /**
 558:Core/Src/usbd_conf.c ****   * @brief  Static single allocation.
 559:Core/Src/usbd_conf.c ****   * @param  size: Size of allocated memory
 560:Core/Src/usbd_conf.c ****   * @retval None
 561:Core/Src/usbd_conf.c ****   */
 562:Core/Src/usbd_conf.c **** void *USBD_static_malloc(uint32_t size)
 563:Core/Src/usbd_conf.c **** {
 564:Core/Src/usbd_conf.c ****   UNUSED(size);
 565:Core/Src/usbd_conf.c ****   static uint32_t mem[(sizeof(USBD_GS_CAN_HandleTypeDef)/4)+1];/* On 32-bit boundary */
 566:Core/Src/usbd_conf.c ****   return mem;
 567:Core/Src/usbd_conf.c **** }
 568:Core/Src/usbd_conf.c **** 
 569:Core/Src/usbd_conf.c **** /**
 570:Core/Src/usbd_conf.c ****   * @brief  Dummy memory free
 571:Core/Src/usbd_conf.c ****   * @param  p: Pointer to allocated  memory address
 572:Core/Src/usbd_conf.c ****   * @retval None
 573:Core/Src/usbd_conf.c ****   */
 574:Core/Src/usbd_conf.c **** void USBD_static_free(void *p)
 575:Core/Src/usbd_conf.c **** {
 576:Core/Src/usbd_conf.c ****   UNUSED(p);
 577:Core/Src/usbd_conf.c **** }
 578:Core/Src/usbd_conf.c **** 
 579:Core/Src/usbd_conf.c **** /* USER CODE BEGIN 5 */
 580:Core/Src/usbd_conf.c **** /**
 581:Core/Src/usbd_conf.c ****   * @brief  Configures system clock after wake-up from USB Resume CallBack:
 582:Core/Src/usbd_conf.c ****   *         enable HSI, PLL and select PLL as system clock source.
 583:Core/Src/usbd_conf.c ****   * @retval None
 584:Core/Src/usbd_conf.c ****   */
 585:Core/Src/usbd_conf.c **** static void SystemClockConfig_Resume(void)
 586:Core/Src/usbd_conf.c **** {
 587:Core/Src/usbd_conf.c ****   SystemClock_Config();
 588:Core/Src/usbd_conf.c **** }
 589:Core/Src/usbd_conf.c **** /* USER CODE END 5 */
 590:Core/Src/usbd_conf.c **** 
 591:Core/Src/usbd_conf.c **** /**
 592:Core/Src/usbd_conf.c ****   * @brief  Returns the USB status depending on the HAL status:
 593:Core/Src/usbd_conf.c ****   * @param  hal_status: HAL status
 594:Core/Src/usbd_conf.c ****   * @retval USB status
 595:Core/Src/usbd_conf.c ****   */
 596:Core/Src/usbd_conf.c **** USBD_StatusTypeDef USBD_Get_USB_Status(HAL_StatusTypeDef hal_status)
 597:Core/Src/usbd_conf.c **** {
  28              		.loc 1 597 1 view -0
  29              		.cfi_startproc
  30              		@ args = 0, pretend = 0, frame = 0
  31              		@ frame_needed = 0, uses_anonymous_args = 0
ARM GAS  /tmp/ccIJ8eX9.s 			page 12


  32              		@ link register save eliminated.
 598:Core/Src/usbd_conf.c ****   USBD_StatusTypeDef usb_status = USBD_OK;
  33              		.loc 1 598 3 view .LVU1
 599:Core/Src/usbd_conf.c **** 
 600:Core/Src/usbd_conf.c ****   switch (hal_status)
  34              		.loc 1 600 3 view .LVU2
  35 0000 0328     		cmp	r0, #3
  36 0002 05D8     		bhi	.L7
  37 0004 DFE800F0 		tbb	[pc, r0]
  38              	.L4:
  39 0008 05       		.byte	(.L2-.L4)/2
  40 0009 04       		.byte	(.L7-.L4)/2
  41 000a 02       		.byte	(.L5-.L4)/2
  42 000b 05       		.byte	(.L2-.L4)/2
  43              		.p2align 1
  44              	.L5:
 601:Core/Src/usbd_conf.c ****   {
 602:Core/Src/usbd_conf.c ****     case HAL_OK :
 603:Core/Src/usbd_conf.c ****       usb_status = USBD_OK;
 604:Core/Src/usbd_conf.c ****     break;
 605:Core/Src/usbd_conf.c ****     case HAL_ERROR :
 606:Core/Src/usbd_conf.c ****       usb_status = USBD_FAIL;
 607:Core/Src/usbd_conf.c ****     break;
 608:Core/Src/usbd_conf.c ****     case HAL_BUSY :
 609:Core/Src/usbd_conf.c ****       usb_status = USBD_BUSY;
  45              		.loc 1 609 7 view .LVU3
  46              	.LVL1:
 610:Core/Src/usbd_conf.c ****     break;
  47              		.loc 1 610 5 view .LVU4
 609:Core/Src/usbd_conf.c ****     break;
  48              		.loc 1 609 18 is_stmt 0 view .LVU5
  49 000c 0120     		movs	r0, #1
  50              	.LVL2:
  51              		.loc 1 610 5 view .LVU6
  52 000e 7047     		bx	lr
  53              	.LVL3:
  54              	.L7:
 606:Core/Src/usbd_conf.c ****     break;
  55              		.loc 1 606 18 view .LVU7
  56 0010 0320     		movs	r0, #3
  57              	.LVL4:
  58              	.L2:
 611:Core/Src/usbd_conf.c ****     case HAL_TIMEOUT :
 612:Core/Src/usbd_conf.c ****       usb_status = USBD_FAIL;
 613:Core/Src/usbd_conf.c ****     break;
 614:Core/Src/usbd_conf.c ****     default :
 615:Core/Src/usbd_conf.c ****       usb_status = USBD_FAIL;
 616:Core/Src/usbd_conf.c ****     break;
 617:Core/Src/usbd_conf.c ****   }
 618:Core/Src/usbd_conf.c ****   return usb_status;
  59              		.loc 1 618 3 is_stmt 1 view .LVU8
 619:Core/Src/usbd_conf.c **** }
  60              		.loc 1 619 1 is_stmt 0 view .LVU9
  61 0012 7047     		bx	lr
  62              		.cfi_endproc
  63              	.LFE178:
  65              		.section	.text.SystemClockConfig_Resume,"ax",%progbits
ARM GAS  /tmp/ccIJ8eX9.s 			page 13


  66              		.align	1
  67              		.syntax unified
  68              		.thumb
  69              		.thumb_func
  71              	SystemClockConfig_Resume:
  72              	.LFB177:
 586:Core/Src/usbd_conf.c ****   SystemClock_Config();
  73              		.loc 1 586 1 is_stmt 1 view -0
  74              		.cfi_startproc
  75              		@ args = 0, pretend = 0, frame = 0
  76              		@ frame_needed = 0, uses_anonymous_args = 0
  77 0000 08B5     		push	{r3, lr}
  78              	.LCFI0:
  79              		.cfi_def_cfa_offset 8
  80              		.cfi_offset 3, -8
  81              		.cfi_offset 14, -4
 587:Core/Src/usbd_conf.c **** }
  82              		.loc 1 587 3 view .LVU11
  83 0002 FFF7FEFF 		bl	SystemClock_Config
  84              	.LVL5:
 588:Core/Src/usbd_conf.c **** /* USER CODE END 5 */
  85              		.loc 1 588 1 is_stmt 0 view .LVU12
  86 0006 08BD     		pop	{r3, pc}
  87              		.cfi_endproc
  88              	.LFE177:
  90              		.section	.text.HAL_PCD_SetupStageCallback,"ax",%progbits
  91              		.align	1
  92              		.global	HAL_PCD_SetupStageCallback
  93              		.syntax unified
  94              		.thumb
  95              		.thumb_func
  97              	HAL_PCD_SetupStageCallback:
  98              	.LVL6:
  99              	.LFB149:
  76:Core/Src/usbd_conf.c ****   USBD_HandleTypeDef *pdev = (USBD_HandleTypeDef*)hpcd->pData;
 100              		.loc 1 76 1 is_stmt 1 view -0
 101              		.cfi_startproc
 102              		@ args = 0, pretend = 0, frame = 0
 103              		@ frame_needed = 0, uses_anonymous_args = 0
  76:Core/Src/usbd_conf.c ****   USBD_HandleTypeDef *pdev = (USBD_HandleTypeDef*)hpcd->pData;
 104              		.loc 1 76 1 is_stmt 0 view .LVU14
 105 0000 F8B5     		push	{r3, r4, r5, r6, r7, lr}
 106              	.LCFI1:
 107              		.cfi_def_cfa_offset 24
 108              		.cfi_offset 3, -24
 109              		.cfi_offset 4, -20
 110              		.cfi_offset 5, -16
 111              		.cfi_offset 6, -12
 112              		.cfi_offset 7, -8
 113              		.cfi_offset 14, -4
 114 0002 0446     		mov	r4, r0
  77:Core/Src/usbd_conf.c **** 	USBD_ParseSetupRequest((USBD_SetupReqTypedef*)&pdev->request, (uint8_t*)hpcd->Setup);
 115              		.loc 1 77 3 is_stmt 1 view .LVU15
  77:Core/Src/usbd_conf.c **** 	USBD_ParseSetupRequest((USBD_SetupReqTypedef*)&pdev->request, (uint8_t*)hpcd->Setup);
 116              		.loc 1 77 23 is_stmt 0 view .LVU16
 117 0004 D0F8E054 		ldr	r5, [r0, #1248]
 118              	.LVL7:
ARM GAS  /tmp/ccIJ8eX9.s 			page 14


  78:Core/Src/usbd_conf.c **** 
 119              		.loc 1 78 2 is_stmt 1 view .LVU17
 120 0008 05F2AA27 		addw	r7, r5, #682
  78:Core/Src/usbd_conf.c **** 
 121              		.loc 1 78 74 is_stmt 0 view .LVU18
 122 000c 00F29C46 		addw	r6, r0, #1180
  78:Core/Src/usbd_conf.c **** 
 123              		.loc 1 78 2 view .LVU19
 124 0010 3146     		mov	r1, r6
 125 0012 3846     		mov	r0, r7
 126              	.LVL8:
  78:Core/Src/usbd_conf.c **** 
 127              		.loc 1 78 2 view .LVU20
 128 0014 FFF7FEFF 		bl	USBD_ParseSetupRequest
 129              	.LVL9:
  80:Core/Src/usbd_conf.c **** 
 130              		.loc 1 80 2 is_stmt 1 view .LVU21
  82:Core/Src/usbd_conf.c **** 		request_was_handled = USBD_GS_CAN_CustomDeviceRequest(pdev, &pdev->request);
 131              		.loc 1 82 2 view .LVU22
  82:Core/Src/usbd_conf.c **** 		request_was_handled = USBD_GS_CAN_CustomDeviceRequest(pdev, &pdev->request);
 132              		.loc 1 82 20 is_stmt 0 view .LVU23
 133 0018 95F8AA32 		ldrb	r3, [r5, #682]	@ zero_extendqisi2
  82:Core/Src/usbd_conf.c **** 		request_was_handled = USBD_GS_CAN_CustomDeviceRequest(pdev, &pdev->request);
 134              		.loc 1 82 5 view .LVU24
 135 001c 13F01F0F 		tst	r3, #31
 136 0020 08D0     		beq	.L16
  80:Core/Src/usbd_conf.c **** 
 137              		.loc 1 80 7 view .LVU25
 138 0022 0020     		movs	r0, #0
 139              	.LVL10:
 140              	.L11:
  86:Core/Src/usbd_conf.c **** 		request_was_handled = USBD_GS_CAN_CustomInterfaceRequest(pdev, &pdev->request);
 141              		.loc 1 86 2 is_stmt 1 view .LVU26
  86:Core/Src/usbd_conf.c **** 		request_was_handled = USBD_GS_CAN_CustomInterfaceRequest(pdev, &pdev->request);
 142              		.loc 1 86 20 is_stmt 0 view .LVU27
 143 0024 95F8AA32 		ldrb	r3, [r5, #682]	@ zero_extendqisi2
  86:Core/Src/usbd_conf.c **** 		request_was_handled = USBD_GS_CAN_CustomInterfaceRequest(pdev, &pdev->request);
 144              		.loc 1 86 5 view .LVU28
 145 0028 03F01F03 		and	r3, r3, #31
 146 002c 012B     		cmp	r3, #1
 147 002e 06D0     		beq	.L17
 148              	.L12:
  90:Core/Src/usbd_conf.c **** 		USBD_LL_SetupStage((USBD_HandleTypeDef*)hpcd->pData, (uint8_t *)hpcd->Setup);
 149              		.loc 1 90 2 is_stmt 1 view .LVU29
  90:Core/Src/usbd_conf.c **** 		USBD_LL_SetupStage((USBD_HandleTypeDef*)hpcd->pData, (uint8_t *)hpcd->Setup);
 150              		.loc 1 90 5 is_stmt 0 view .LVU30
 151 0030 50B1     		cbz	r0, .L18
 152              	.LVL11:
 153              	.L10:
  93:Core/Src/usbd_conf.c **** 
 154              		.loc 1 93 1 view .LVU31
 155 0032 F8BD     		pop	{r3, r4, r5, r6, r7, pc}
 156              	.LVL12:
 157              	.L16:
  83:Core/Src/usbd_conf.c **** 	}
 158              		.loc 1 83 3 is_stmt 1 view .LVU32
  83:Core/Src/usbd_conf.c **** 	}
ARM GAS  /tmp/ccIJ8eX9.s 			page 15


 159              		.loc 1 83 25 is_stmt 0 view .LVU33
 160 0034 3946     		mov	r1, r7
 161 0036 2846     		mov	r0, r5
 162 0038 FFF7FEFF 		bl	USBD_GS_CAN_CustomDeviceRequest
 163              	.LVL13:
  83:Core/Src/usbd_conf.c **** 	}
 164              		.loc 1 83 25 view .LVU34
 165 003c F2E7     		b	.L11
 166              	.L17:
  87:Core/Src/usbd_conf.c **** 	}
 167              		.loc 1 87 3 is_stmt 1 view .LVU35
  87:Core/Src/usbd_conf.c **** 	}
 168              		.loc 1 87 25 is_stmt 0 view .LVU36
 169 003e 3946     		mov	r1, r7
 170 0040 2846     		mov	r0, r5
 171              	.LVL14:
  87:Core/Src/usbd_conf.c **** 	}
 172              		.loc 1 87 25 view .LVU37
 173 0042 FFF7FEFF 		bl	USBD_GS_CAN_CustomInterfaceRequest
 174              	.LVL15:
  87:Core/Src/usbd_conf.c **** 	}
 175              		.loc 1 87 25 view .LVU38
 176 0046 F3E7     		b	.L12
 177              	.L18:
  91:Core/Src/usbd_conf.c **** 	}
 178              		.loc 1 91 3 is_stmt 1 view .LVU39
 179 0048 3146     		mov	r1, r6
 180 004a D4F8E004 		ldr	r0, [r4, #1248]
 181              	.LVL16:
  91:Core/Src/usbd_conf.c **** 	}
 182              		.loc 1 91 3 is_stmt 0 view .LVU40
 183 004e FFF7FEFF 		bl	USBD_LL_SetupStage
 184              	.LVL17:
  93:Core/Src/usbd_conf.c **** 
 185              		.loc 1 93 1 view .LVU41
 186 0052 EEE7     		b	.L10
 187              		.cfi_endproc
 188              	.LFE149:
 190              		.section	.text.HAL_PCD_DataOutStageCallback,"ax",%progbits
 191              		.align	1
 192              		.global	HAL_PCD_DataOutStageCallback
 193              		.syntax unified
 194              		.thumb
 195              		.thumb_func
 197              	HAL_PCD_DataOutStageCallback:
 198              	.LVL18:
 199              	.LFB150:
 102:Core/Src/usbd_conf.c ****   USBD_LL_DataOutStage((USBD_HandleTypeDef*)hpcd->pData, epnum, hpcd->OUT_ep[epnum].xfer_buff);
 200              		.loc 1 102 1 is_stmt 1 view -0
 201              		.cfi_startproc
 202              		@ args = 0, pretend = 0, frame = 0
 203              		@ frame_needed = 0, uses_anonymous_args = 0
 102:Core/Src/usbd_conf.c ****   USBD_LL_DataOutStage((USBD_HandleTypeDef*)hpcd->pData, epnum, hpcd->OUT_ep[epnum].xfer_buff);
 204              		.loc 1 102 1 is_stmt 0 view .LVU43
 205 0000 08B5     		push	{r3, lr}
 206              	.LCFI2:
 207              		.cfi_def_cfa_offset 8
ARM GAS  /tmp/ccIJ8eX9.s 			page 16


 208              		.cfi_offset 3, -8
 209              		.cfi_offset 14, -4
 103:Core/Src/usbd_conf.c **** }
 210              		.loc 1 103 3 is_stmt 1 view .LVU44
 211 0002 01EBC103 		add	r3, r1, r1, lsl #3
 212 0006 00EB8303 		add	r3, r0, r3, lsl #2
 213 000a D3F86022 		ldr	r2, [r3, #608]
 214 000e D0F8E004 		ldr	r0, [r0, #1248]
 215              	.LVL19:
 103:Core/Src/usbd_conf.c **** }
 216              		.loc 1 103 3 is_stmt 0 view .LVU45
 217 0012 FFF7FEFF 		bl	USBD_LL_DataOutStage
 218              	.LVL20:
 104:Core/Src/usbd_conf.c **** 
 219              		.loc 1 104 1 view .LVU46
 220 0016 08BD     		pop	{r3, pc}
 221              		.cfi_endproc
 222              	.LFE150:
 224              		.section	.text.HAL_PCD_DataInStageCallback,"ax",%progbits
 225              		.align	1
 226              		.global	HAL_PCD_DataInStageCallback
 227              		.syntax unified
 228              		.thumb
 229              		.thumb_func
 231              	HAL_PCD_DataInStageCallback:
 232              	.LVL21:
 233              	.LFB151:
 113:Core/Src/usbd_conf.c ****   USBD_LL_DataInStage((USBD_HandleTypeDef*)hpcd->pData, epnum, hpcd->IN_ep[epnum].xfer_buff);
 234              		.loc 1 113 1 is_stmt 1 view -0
 235              		.cfi_startproc
 236              		@ args = 0, pretend = 0, frame = 0
 237              		@ frame_needed = 0, uses_anonymous_args = 0
 113:Core/Src/usbd_conf.c ****   USBD_LL_DataInStage((USBD_HandleTypeDef*)hpcd->pData, epnum, hpcd->IN_ep[epnum].xfer_buff);
 238              		.loc 1 113 1 is_stmt 0 view .LVU48
 239 0000 08B5     		push	{r3, lr}
 240              	.LCFI3:
 241              		.cfi_def_cfa_offset 8
 242              		.cfi_offset 3, -8
 243              		.cfi_offset 14, -4
 114:Core/Src/usbd_conf.c **** }
 244              		.loc 1 114 3 is_stmt 1 view .LVU49
 245 0002 01EBC103 		add	r3, r1, r1, lsl #3
 246 0006 00EB8303 		add	r3, r0, r3, lsl #2
 247 000a 1A6A     		ldr	r2, [r3, #32]
 248 000c D0F8E004 		ldr	r0, [r0, #1248]
 249              	.LVL22:
 114:Core/Src/usbd_conf.c **** }
 250              		.loc 1 114 3 is_stmt 0 view .LVU50
 251 0010 FFF7FEFF 		bl	USBD_LL_DataInStage
 252              	.LVL23:
 115:Core/Src/usbd_conf.c **** 
 253              		.loc 1 115 1 view .LVU51
 254 0014 08BD     		pop	{r3, pc}
 255              		.cfi_endproc
 256              	.LFE151:
 258              		.section	.text.HAL_PCD_SOFCallback,"ax",%progbits
 259              		.align	1
ARM GAS  /tmp/ccIJ8eX9.s 			page 17


 260              		.global	HAL_PCD_SOFCallback
 261              		.syntax unified
 262              		.thumb
 263              		.thumb_func
 265              	HAL_PCD_SOFCallback:
 266              	.LVL24:
 267              	.LFB152:
 123:Core/Src/usbd_conf.c ****   USBD_LL_SOF((USBD_HandleTypeDef*)hpcd->pData);
 268              		.loc 1 123 1 is_stmt 1 view -0
 269              		.cfi_startproc
 270              		@ args = 0, pretend = 0, frame = 0
 271              		@ frame_needed = 0, uses_anonymous_args = 0
 123:Core/Src/usbd_conf.c ****   USBD_LL_SOF((USBD_HandleTypeDef*)hpcd->pData);
 272              		.loc 1 123 1 is_stmt 0 view .LVU53
 273 0000 08B5     		push	{r3, lr}
 274              	.LCFI4:
 275              		.cfi_def_cfa_offset 8
 276              		.cfi_offset 3, -8
 277              		.cfi_offset 14, -4
 124:Core/Src/usbd_conf.c **** }
 278              		.loc 1 124 3 is_stmt 1 view .LVU54
 279 0002 D0F8E004 		ldr	r0, [r0, #1248]
 280              	.LVL25:
 124:Core/Src/usbd_conf.c **** }
 281              		.loc 1 124 3 is_stmt 0 view .LVU55
 282 0006 FFF7FEFF 		bl	USBD_LL_SOF
 283              	.LVL26:
 125:Core/Src/usbd_conf.c **** 
 284              		.loc 1 125 1 view .LVU56
 285 000a 08BD     		pop	{r3, pc}
 286              		.cfi_endproc
 287              	.LFE152:
 289              		.section	.text.HAL_PCD_ResetCallback,"ax",%progbits
 290              		.align	1
 291              		.global	HAL_PCD_ResetCallback
 292              		.syntax unified
 293              		.thumb
 294              		.thumb_func
 296              	HAL_PCD_ResetCallback:
 297              	.LVL27:
 298              	.LFB153:
 133:Core/Src/usbd_conf.c ****   USBD_SpeedTypeDef speed = USBD_SPEED_FULL;
 299              		.loc 1 133 1 is_stmt 1 view -0
 300              		.cfi_startproc
 301              		@ args = 0, pretend = 0, frame = 0
 302              		@ frame_needed = 0, uses_anonymous_args = 0
 133:Core/Src/usbd_conf.c ****   USBD_SpeedTypeDef speed = USBD_SPEED_FULL;
 303              		.loc 1 133 1 is_stmt 0 view .LVU58
 304 0000 10B5     		push	{r4, lr}
 305              	.LCFI5:
 306              		.cfi_def_cfa_offset 8
 307              		.cfi_offset 4, -8
 308              		.cfi_offset 14, -4
 309 0002 0446     		mov	r4, r0
 134:Core/Src/usbd_conf.c **** 
 310              		.loc 1 134 3 is_stmt 1 view .LVU59
 311              	.LVL28:
ARM GAS  /tmp/ccIJ8eX9.s 			page 18


 136:Core/Src/usbd_conf.c ****   {
 312              		.loc 1 136 3 view .LVU60
 136:Core/Src/usbd_conf.c ****   {
 313              		.loc 1 136 18 is_stmt 0 view .LVU61
 314 0004 C379     		ldrb	r3, [r0, #7]	@ zero_extendqisi2
 136:Core/Src/usbd_conf.c ****   {
 315              		.loc 1 136 6 view .LVU62
 316 0006 022B     		cmp	r3, #2
 317 0008 09D1     		bne	.L28
 318              	.LVL29:
 319              	.L26:
 141:Core/Src/usbd_conf.c **** 
 320              		.loc 1 141 3 is_stmt 1 view .LVU63
 321 000a 0121     		movs	r1, #1
 322 000c D4F8E004 		ldr	r0, [r4, #1248]
 323 0010 FFF7FEFF 		bl	USBD_LL_SetSpeed
 324              	.LVL30:
 144:Core/Src/usbd_conf.c **** }
 325              		.loc 1 144 3 view .LVU64
 326 0014 D4F8E004 		ldr	r0, [r4, #1248]
 327 0018 FFF7FEFF 		bl	USBD_LL_Reset
 328              	.LVL31:
 145:Core/Src/usbd_conf.c **** 
 329              		.loc 1 145 1 is_stmt 0 view .LVU65
 330 001c 10BD     		pop	{r4, pc}
 331              	.LVL32:
 332              	.L28:
 138:Core/Src/usbd_conf.c ****   }
 333              		.loc 1 138 5 is_stmt 1 view .LVU66
 334 001e FFF7FEFF 		bl	Error_Handler
 335              	.LVL33:
 138:Core/Src/usbd_conf.c ****   }
 336              		.loc 1 138 5 is_stmt 0 view .LVU67
 337 0022 F2E7     		b	.L26
 338              		.cfi_endproc
 339              	.LFE153:
 341              		.section	.text.HAL_PCD_SuspendCallback,"ax",%progbits
 342              		.align	1
 343              		.global	HAL_PCD_SuspendCallback
 344              		.syntax unified
 345              		.thumb
 346              		.thumb_func
 348              	HAL_PCD_SuspendCallback:
 349              	.LVL34:
 350              	.LFB154:
 154:Core/Src/usbd_conf.c ****   /* Inform USB library that core enters in suspend Mode. */
 351              		.loc 1 154 1 is_stmt 1 view -0
 352              		.cfi_startproc
 353              		@ args = 0, pretend = 0, frame = 0
 354              		@ frame_needed = 0, uses_anonymous_args = 0
 154:Core/Src/usbd_conf.c ****   /* Inform USB library that core enters in suspend Mode. */
 355              		.loc 1 154 1 is_stmt 0 view .LVU69
 356 0000 10B5     		push	{r4, lr}
 357              	.LCFI6:
 358              		.cfi_def_cfa_offset 8
 359              		.cfi_offset 4, -8
 360              		.cfi_offset 14, -4
ARM GAS  /tmp/ccIJ8eX9.s 			page 19


 361 0002 0446     		mov	r4, r0
 156:Core/Src/usbd_conf.c ****   /* Enter in STOP mode. */
 362              		.loc 1 156 3 is_stmt 1 view .LVU70
 363 0004 D0F8E004 		ldr	r0, [r0, #1248]
 364              	.LVL35:
 156:Core/Src/usbd_conf.c ****   /* Enter in STOP mode. */
 365              		.loc 1 156 3 is_stmt 0 view .LVU71
 366 0008 FFF7FEFF 		bl	USBD_LL_Suspend
 367              	.LVL36:
 159:Core/Src/usbd_conf.c ****   {
 368              		.loc 1 159 3 is_stmt 1 view .LVU72
 159:Core/Src/usbd_conf.c ****   {
 369              		.loc 1 159 17 is_stmt 0 view .LVU73
 370 000c E37A     		ldrb	r3, [r4, #11]	@ zero_extendqisi2
 159:Core/Src/usbd_conf.c ****   {
 371              		.loc 1 159 6 view .LVU74
 372 000e 23B1     		cbz	r3, .L29
 162:Core/Src/usbd_conf.c ****   }
 373              		.loc 1 162 5 is_stmt 1 view .LVU75
 162:Core/Src/usbd_conf.c ****   }
 374              		.loc 1 162 14 is_stmt 0 view .LVU76
 375 0010 024A     		ldr	r2, .L32
 376 0012 1369     		ldr	r3, [r2, #16]
 377 0014 43F00603 		orr	r3, r3, #6
 378 0018 1361     		str	r3, [r2, #16]
 379              	.L29:
 165:Core/Src/usbd_conf.c **** 
 380              		.loc 1 165 1 view .LVU77
 381 001a 10BD     		pop	{r4, pc}
 382              	.LVL37:
 383              	.L33:
 165:Core/Src/usbd_conf.c **** 
 384              		.loc 1 165 1 view .LVU78
 385              		.align	2
 386              	.L32:
 387 001c 00ED00E0 		.word	-536810240
 388              		.cfi_endproc
 389              	.LFE154:
 391              		.section	.text.HAL_PCD_ResumeCallback,"ax",%progbits
 392              		.align	1
 393              		.global	HAL_PCD_ResumeCallback
 394              		.syntax unified
 395              		.thumb
 396              		.thumb_func
 398              	HAL_PCD_ResumeCallback:
 399              	.LVL38:
 400              	.LFB155:
 174:Core/Src/usbd_conf.c ****   /* USER CODE BEGIN 3 */
 401              		.loc 1 174 1 is_stmt 1 view -0
 402              		.cfi_startproc
 403              		@ args = 0, pretend = 0, frame = 0
 404              		@ frame_needed = 0, uses_anonymous_args = 0
 174:Core/Src/usbd_conf.c ****   /* USER CODE BEGIN 3 */
 405              		.loc 1 174 1 is_stmt 0 view .LVU80
 406 0000 10B5     		push	{r4, lr}
 407              	.LCFI7:
 408              		.cfi_def_cfa_offset 8
ARM GAS  /tmp/ccIJ8eX9.s 			page 20


 409              		.cfi_offset 4, -8
 410              		.cfi_offset 14, -4
 411 0002 0446     		mov	r4, r0
 176:Core/Src/usbd_conf.c ****   {
 412              		.loc 1 176 3 is_stmt 1 view .LVU81
 176:Core/Src/usbd_conf.c ****   {
 413              		.loc 1 176 17 is_stmt 0 view .LVU82
 414 0004 C37A     		ldrb	r3, [r0, #11]	@ zero_extendqisi2
 176:Core/Src/usbd_conf.c ****   {
 415              		.loc 1 176 6 view .LVU83
 416 0006 23B9     		cbnz	r3, .L37
 417              	.LVL39:
 418              	.L35:
 183:Core/Src/usbd_conf.c **** }
 419              		.loc 1 183 3 is_stmt 1 view .LVU84
 420 0008 D4F8E004 		ldr	r0, [r4, #1248]
 421 000c FFF7FEFF 		bl	USBD_LL_Resume
 422              	.LVL40:
 184:Core/Src/usbd_conf.c **** 
 423              		.loc 1 184 1 is_stmt 0 view .LVU85
 424 0010 10BD     		pop	{r4, pc}
 425              	.LVL41:
 426              	.L37:
 179:Core/Src/usbd_conf.c ****     SystemClockConfig_Resume();
 427              		.loc 1 179 5 is_stmt 1 view .LVU86
 179:Core/Src/usbd_conf.c ****     SystemClockConfig_Resume();
 428              		.loc 1 179 14 is_stmt 0 view .LVU87
 429 0012 044A     		ldr	r2, .L38
 430 0014 1369     		ldr	r3, [r2, #16]
 431 0016 23F00603 		bic	r3, r3, #6
 432 001a 1361     		str	r3, [r2, #16]
 180:Core/Src/usbd_conf.c ****   }
 433              		.loc 1 180 5 is_stmt 1 view .LVU88
 434 001c FFF7FEFF 		bl	SystemClockConfig_Resume
 435              	.LVL42:
 180:Core/Src/usbd_conf.c ****   }
 436              		.loc 1 180 5 is_stmt 0 view .LVU89
 437 0020 F2E7     		b	.L35
 438              	.L39:
 439 0022 00BF     		.align	2
 440              	.L38:
 441 0024 00ED00E0 		.word	-536810240
 442              		.cfi_endproc
 443              	.LFE155:
 445              		.section	.text.HAL_PCD_ISOOUTIncompleteCallback,"ax",%progbits
 446              		.align	1
 447              		.global	HAL_PCD_ISOOUTIncompleteCallback
 448              		.syntax unified
 449              		.thumb
 450              		.thumb_func
 452              	HAL_PCD_ISOOUTIncompleteCallback:
 453              	.LVL43:
 454              	.LFB156:
 193:Core/Src/usbd_conf.c ****   USBD_LL_IsoOUTIncomplete((USBD_HandleTypeDef*)hpcd->pData, epnum);
 455              		.loc 1 193 1 is_stmt 1 view -0
 456              		.cfi_startproc
 457              		@ args = 0, pretend = 0, frame = 0
ARM GAS  /tmp/ccIJ8eX9.s 			page 21


 458              		@ frame_needed = 0, uses_anonymous_args = 0
 193:Core/Src/usbd_conf.c ****   USBD_LL_IsoOUTIncomplete((USBD_HandleTypeDef*)hpcd->pData, epnum);
 459              		.loc 1 193 1 is_stmt 0 view .LVU91
 460 0000 08B5     		push	{r3, lr}
 461              	.LCFI8:
 462              		.cfi_def_cfa_offset 8
 463              		.cfi_offset 3, -8
 464              		.cfi_offset 14, -4
 194:Core/Src/usbd_conf.c **** }
 465              		.loc 1 194 3 is_stmt 1 view .LVU92
 466 0002 D0F8E004 		ldr	r0, [r0, #1248]
 467              	.LVL44:
 194:Core/Src/usbd_conf.c **** }
 468              		.loc 1 194 3 is_stmt 0 view .LVU93
 469 0006 FFF7FEFF 		bl	USBD_LL_IsoOUTIncomplete
 470              	.LVL45:
 195:Core/Src/usbd_conf.c **** 
 471              		.loc 1 195 1 view .LVU94
 472 000a 08BD     		pop	{r3, pc}
 473              		.cfi_endproc
 474              	.LFE156:
 476              		.section	.text.HAL_PCD_ISOINIncompleteCallback,"ax",%progbits
 477              		.align	1
 478              		.global	HAL_PCD_ISOINIncompleteCallback
 479              		.syntax unified
 480              		.thumb
 481              		.thumb_func
 483              	HAL_PCD_ISOINIncompleteCallback:
 484              	.LVL46:
 485              	.LFB157:
 204:Core/Src/usbd_conf.c ****   USBD_LL_IsoINIncomplete((USBD_HandleTypeDef*)hpcd->pData, epnum);
 486              		.loc 1 204 1 is_stmt 1 view -0
 487              		.cfi_startproc
 488              		@ args = 0, pretend = 0, frame = 0
 489              		@ frame_needed = 0, uses_anonymous_args = 0
 204:Core/Src/usbd_conf.c ****   USBD_LL_IsoINIncomplete((USBD_HandleTypeDef*)hpcd->pData, epnum);
 490              		.loc 1 204 1 is_stmt 0 view .LVU96
 491 0000 08B5     		push	{r3, lr}
 492              	.LCFI9:
 493              		.cfi_def_cfa_offset 8
 494              		.cfi_offset 3, -8
 495              		.cfi_offset 14, -4
 205:Core/Src/usbd_conf.c **** }
 496              		.loc 1 205 3 is_stmt 1 view .LVU97
 497 0002 D0F8E004 		ldr	r0, [r0, #1248]
 498              	.LVL47:
 205:Core/Src/usbd_conf.c **** }
 499              		.loc 1 205 3 is_stmt 0 view .LVU98
 500 0006 FFF7FEFF 		bl	USBD_LL_IsoINIncomplete
 501              	.LVL48:
 206:Core/Src/usbd_conf.c **** 
 502              		.loc 1 206 1 view .LVU99
 503 000a 08BD     		pop	{r3, pc}
 504              		.cfi_endproc
 505              	.LFE157:
 507              		.section	.text.HAL_PCD_ConnectCallback,"ax",%progbits
 508              		.align	1
ARM GAS  /tmp/ccIJ8eX9.s 			page 22


 509              		.global	HAL_PCD_ConnectCallback
 510              		.syntax unified
 511              		.thumb
 512              		.thumb_func
 514              	HAL_PCD_ConnectCallback:
 515              	.LVL49:
 516              	.LFB158:
 214:Core/Src/usbd_conf.c ****   USBD_LL_DevConnected((USBD_HandleTypeDef*)hpcd->pData);
 517              		.loc 1 214 1 is_stmt 1 view -0
 518              		.cfi_startproc
 519              		@ args = 0, pretend = 0, frame = 0
 520              		@ frame_needed = 0, uses_anonymous_args = 0
 214:Core/Src/usbd_conf.c ****   USBD_LL_DevConnected((USBD_HandleTypeDef*)hpcd->pData);
 521              		.loc 1 214 1 is_stmt 0 view .LVU101
 522 0000 08B5     		push	{r3, lr}
 523              	.LCFI10:
 524              		.cfi_def_cfa_offset 8
 525              		.cfi_offset 3, -8
 526              		.cfi_offset 14, -4
 215:Core/Src/usbd_conf.c **** }
 527              		.loc 1 215 3 is_stmt 1 view .LVU102
 528 0002 D0F8E004 		ldr	r0, [r0, #1248]
 529              	.LVL50:
 215:Core/Src/usbd_conf.c **** }
 530              		.loc 1 215 3 is_stmt 0 view .LVU103
 531 0006 FFF7FEFF 		bl	USBD_LL_DevConnected
 532              	.LVL51:
 216:Core/Src/usbd_conf.c **** 
 533              		.loc 1 216 1 view .LVU104
 534 000a 08BD     		pop	{r3, pc}
 535              		.cfi_endproc
 536              	.LFE158:
 538              		.section	.text.HAL_PCD_DisconnectCallback,"ax",%progbits
 539              		.align	1
 540              		.global	HAL_PCD_DisconnectCallback
 541              		.syntax unified
 542              		.thumb
 543              		.thumb_func
 545              	HAL_PCD_DisconnectCallback:
 546              	.LVL52:
 547              	.LFB159:
 224:Core/Src/usbd_conf.c ****   USBD_LL_DevDisconnected((USBD_HandleTypeDef*)hpcd->pData);
 548              		.loc 1 224 1 is_stmt 1 view -0
 549              		.cfi_startproc
 550              		@ args = 0, pretend = 0, frame = 0
 551              		@ frame_needed = 0, uses_anonymous_args = 0
 224:Core/Src/usbd_conf.c ****   USBD_LL_DevDisconnected((USBD_HandleTypeDef*)hpcd->pData);
 552              		.loc 1 224 1 is_stmt 0 view .LVU106
 553 0000 08B5     		push	{r3, lr}
 554              	.LCFI11:
 555              		.cfi_def_cfa_offset 8
 556              		.cfi_offset 3, -8
 557              		.cfi_offset 14, -4
 225:Core/Src/usbd_conf.c **** }
 558              		.loc 1 225 3 is_stmt 1 view .LVU107
 559 0002 D0F8E004 		ldr	r0, [r0, #1248]
 560              	.LVL53:
ARM GAS  /tmp/ccIJ8eX9.s 			page 23


 225:Core/Src/usbd_conf.c **** }
 561              		.loc 1 225 3 is_stmt 0 view .LVU108
 562 0006 FFF7FEFF 		bl	USBD_LL_DevDisconnected
 563              	.LVL54:
 226:Core/Src/usbd_conf.c **** 
 564              		.loc 1 226 1 view .LVU109
 565 000a 08BD     		pop	{r3, pc}
 566              		.cfi_endproc
 567              	.LFE159:
 569              		.section	.text.USBD_LL_Init,"ax",%progbits
 570              		.align	1
 571              		.global	USBD_LL_Init
 572              		.syntax unified
 573              		.thumb
 574              		.thumb_func
 576              	USBD_LL_Init:
 577              	.LVL55:
 578              	.LFB160:
 238:Core/Src/usbd_conf.c **** #if defined(USB)
 579              		.loc 1 238 1 is_stmt 1 view -0
 580              		.cfi_startproc
 581              		@ args = 0, pretend = 0, frame = 0
 582              		@ frame_needed = 0, uses_anonymous_args = 0
 238:Core/Src/usbd_conf.c **** #if defined(USB)
 583              		.loc 1 238 1 is_stmt 0 view .LVU111
 584 0000 10B5     		push	{r4, lr}
 585              	.LCFI12:
 586              		.cfi_def_cfa_offset 8
 587              		.cfi_offset 4, -8
 588              		.cfi_offset 14, -4
 589 0002 0346     		mov	r3, r0
 281:Core/Src/usbd_conf.c ****   pdev->pData = &hpcd_USB_OTG_FS;
 590              		.loc 1 281 3 is_stmt 1 view .LVU112
 281:Core/Src/usbd_conf.c ****   pdev->pData = &hpcd_USB_OTG_FS;
 591              		.loc 1 281 25 is_stmt 0 view .LVU113
 592 0004 1548     		ldr	r0, .L52
 593              	.LVL56:
 281:Core/Src/usbd_conf.c ****   pdev->pData = &hpcd_USB_OTG_FS;
 594              		.loc 1 281 25 view .LVU114
 595 0006 C0F8E034 		str	r3, [r0, #1248]
 282:Core/Src/usbd_conf.c **** 
 596              		.loc 1 282 3 is_stmt 1 view .LVU115
 282:Core/Src/usbd_conf.c **** 
 597              		.loc 1 282 15 is_stmt 0 view .LVU116
 598 000a C3F8C802 		str	r0, [r3, #712]
 284:Core/Src/usbd_conf.c ****   hpcd_USB_OTG_FS.Init.dev_endpoints = 5;
 599              		.loc 1 284 3 is_stmt 1 view .LVU117
 284:Core/Src/usbd_conf.c ****   hpcd_USB_OTG_FS.Init.dev_endpoints = 5;
 600              		.loc 1 284 28 is_stmt 0 view .LVU118
 601 000e 144B     		ldr	r3, .L52+4
 602              	.LVL57:
 284:Core/Src/usbd_conf.c ****   hpcd_USB_OTG_FS.Init.dev_endpoints = 5;
 603              		.loc 1 284 28 view .LVU119
 604 0010 0360     		str	r3, [r0]
 285:Core/Src/usbd_conf.c ****   hpcd_USB_OTG_FS.Init.speed = PCD_SPEED_FULL;
 605              		.loc 1 285 3 is_stmt 1 view .LVU120
 285:Core/Src/usbd_conf.c ****   hpcd_USB_OTG_FS.Init.speed = PCD_SPEED_FULL;
ARM GAS  /tmp/ccIJ8eX9.s 			page 24


 606              		.loc 1 285 38 is_stmt 0 view .LVU121
 607 0012 0523     		movs	r3, #5
 608 0014 0371     		strb	r3, [r0, #4]
 286:Core/Src/usbd_conf.c ****   hpcd_USB_OTG_FS.Init.dma_enable = DISABLE;
 609              		.loc 1 286 3 is_stmt 1 view .LVU122
 286:Core/Src/usbd_conf.c ****   hpcd_USB_OTG_FS.Init.dma_enable = DISABLE;
 610              		.loc 1 286 30 is_stmt 0 view .LVU123
 611 0016 0222     		movs	r2, #2
 612 0018 C271     		strb	r2, [r0, #7]
 287:Core/Src/usbd_conf.c ****   hpcd_USB_OTG_FS.Init.phy_itface = PCD_PHY_EMBEDDED;
 613              		.loc 1 287 3 is_stmt 1 view .LVU124
 287:Core/Src/usbd_conf.c ****   hpcd_USB_OTG_FS.Init.phy_itface = PCD_PHY_EMBEDDED;
 614              		.loc 1 287 35 is_stmt 0 view .LVU125
 615 001a 0023     		movs	r3, #0
 616 001c 8371     		strb	r3, [r0, #6]
 288:Core/Src/usbd_conf.c ****   hpcd_USB_OTG_FS.Init.Sof_enable = DISABLE;
 617              		.loc 1 288 3 is_stmt 1 view .LVU126
 288:Core/Src/usbd_conf.c ****   hpcd_USB_OTG_FS.Init.Sof_enable = DISABLE;
 618              		.loc 1 288 35 is_stmt 0 view .LVU127
 619 001e 4272     		strb	r2, [r0, #9]
 289:Core/Src/usbd_conf.c ****   hpcd_USB_OTG_FS.Init.low_power_enable = DISABLE;
 620              		.loc 1 289 3 is_stmt 1 view .LVU128
 289:Core/Src/usbd_conf.c ****   hpcd_USB_OTG_FS.Init.low_power_enable = DISABLE;
 621              		.loc 1 289 35 is_stmt 0 view .LVU129
 622 0020 8372     		strb	r3, [r0, #10]
 290:Core/Src/usbd_conf.c ****   hpcd_USB_OTG_FS.Init.lpm_enable = DISABLE;
 623              		.loc 1 290 3 is_stmt 1 view .LVU130
 290:Core/Src/usbd_conf.c ****   hpcd_USB_OTG_FS.Init.lpm_enable = DISABLE;
 624              		.loc 1 290 41 is_stmt 0 view .LVU131
 625 0022 C372     		strb	r3, [r0, #11]
 291:Core/Src/usbd_conf.c ****   hpcd_USB_OTG_FS.Init.battery_charging_enable = DISABLE;
 626              		.loc 1 291 3 is_stmt 1 view .LVU132
 291:Core/Src/usbd_conf.c ****   hpcd_USB_OTG_FS.Init.battery_charging_enable = DISABLE;
 627              		.loc 1 291 35 is_stmt 0 view .LVU133
 628 0024 0373     		strb	r3, [r0, #12]
 292:Core/Src/usbd_conf.c ****   hpcd_USB_OTG_FS.Init.vbus_sensing_enable = DISABLE;
 629              		.loc 1 292 3 is_stmt 1 view .LVU134
 292:Core/Src/usbd_conf.c ****   hpcd_USB_OTG_FS.Init.vbus_sensing_enable = DISABLE;
 630              		.loc 1 292 48 is_stmt 0 view .LVU135
 631 0026 4373     		strb	r3, [r0, #13]
 293:Core/Src/usbd_conf.c ****   hpcd_USB_OTG_FS.Init.use_dedicated_ep1 = DISABLE;
 632              		.loc 1 293 3 is_stmt 1 view .LVU136
 293:Core/Src/usbd_conf.c ****   hpcd_USB_OTG_FS.Init.use_dedicated_ep1 = DISABLE;
 633              		.loc 1 293 44 is_stmt 0 view .LVU137
 634 0028 8373     		strb	r3, [r0, #14]
 294:Core/Src/usbd_conf.c ****   if (HAL_PCD_Init(&hpcd_USB_OTG_FS) != HAL_OK)
 635              		.loc 1 294 3 is_stmt 1 view .LVU138
 294:Core/Src/usbd_conf.c ****   if (HAL_PCD_Init(&hpcd_USB_OTG_FS) != HAL_OK)
 636              		.loc 1 294 42 is_stmt 0 view .LVU139
 637 002a C373     		strb	r3, [r0, #15]
 295:Core/Src/usbd_conf.c ****   {
 638              		.loc 1 295 3 is_stmt 1 view .LVU140
 295:Core/Src/usbd_conf.c ****   {
 639              		.loc 1 295 7 is_stmt 0 view .LVU141
 640 002c FFF7FEFF 		bl	HAL_PCD_Init
 641              	.LVL58:
 295:Core/Src/usbd_conf.c ****   {
ARM GAS  /tmp/ccIJ8eX9.s 			page 25


 642              		.loc 1 295 6 view .LVU142
 643 0030 80B9     		cbnz	r0, .L51
 644              	.L49:
 302:Core/Src/usbd_conf.c ****   HAL_PCDEx_SetTxFiFo(&hpcd_USB_OTG_FS, 0, 0x40);
 645              		.loc 1 302 3 is_stmt 1 view .LVU143
 646 0032 0A4C     		ldr	r4, .L52
 647 0034 8021     		movs	r1, #128
 648 0036 2046     		mov	r0, r4
 649 0038 FFF7FEFF 		bl	HAL_PCDEx_SetRxFiFo
 650              	.LVL59:
 303:Core/Src/usbd_conf.c ****   HAL_PCDEx_SetTxFiFo(&hpcd_USB_OTG_FS, 1, 0x80);
 651              		.loc 1 303 3 view .LVU144
 652 003c 4022     		movs	r2, #64
 653 003e 0021     		movs	r1, #0
 654 0040 2046     		mov	r0, r4
 655 0042 FFF7FEFF 		bl	HAL_PCDEx_SetTxFiFo
 656              	.LVL60:
 304:Core/Src/usbd_conf.c **** #else
 657              		.loc 1 304 3 view .LVU145
 658 0046 8022     		movs	r2, #128
 659 0048 0121     		movs	r1, #1
 660 004a 2046     		mov	r0, r4
 661 004c FFF7FEFF 		bl	HAL_PCDEx_SetTxFiFo
 662              	.LVL61:
 312:Core/Src/usbd_conf.c **** }
 663              		.loc 1 312 3 view .LVU146
 313:Core/Src/usbd_conf.c **** 
 664              		.loc 1 313 1 is_stmt 0 view .LVU147
 665 0050 0020     		movs	r0, #0
 666 0052 10BD     		pop	{r4, pc}
 667              	.L51:
 297:Core/Src/usbd_conf.c ****   }
 668              		.loc 1 297 5 is_stmt 1 view .LVU148
 669 0054 FFF7FEFF 		bl	Error_Handler
 670              	.LVL62:
 671 0058 EBE7     		b	.L49
 672              	.L53:
 673 005a 00BF     		.align	2
 674              	.L52:
 675 005c 00000000 		.word	.LANCHOR0
 676 0060 00000840 		.word	1074266112
 677              		.cfi_endproc
 678              	.LFE160:
 680              		.section	.text.USBD_LL_DeInit,"ax",%progbits
 681              		.align	1
 682              		.global	USBD_LL_DeInit
 683              		.syntax unified
 684              		.thumb
 685              		.thumb_func
 687              	USBD_LL_DeInit:
 688              	.LVL63:
 689              	.LFB161:
 321:Core/Src/usbd_conf.c ****   HAL_StatusTypeDef hal_status = HAL_OK;
 690              		.loc 1 321 1 view -0
 691              		.cfi_startproc
 692              		@ args = 0, pretend = 0, frame = 0
 693              		@ frame_needed = 0, uses_anonymous_args = 0
ARM GAS  /tmp/ccIJ8eX9.s 			page 26


 321:Core/Src/usbd_conf.c ****   HAL_StatusTypeDef hal_status = HAL_OK;
 694              		.loc 1 321 1 is_stmt 0 view .LVU150
 695 0000 08B5     		push	{r3, lr}
 696              	.LCFI13:
 697              		.cfi_def_cfa_offset 8
 698              		.cfi_offset 3, -8
 699              		.cfi_offset 14, -4
 322:Core/Src/usbd_conf.c ****   USBD_StatusTypeDef usb_status = USBD_OK;
 700              		.loc 1 322 3 is_stmt 1 view .LVU151
 701              	.LVL64:
 323:Core/Src/usbd_conf.c **** 
 702              		.loc 1 323 3 view .LVU152
 325:Core/Src/usbd_conf.c **** 
 703              		.loc 1 325 3 view .LVU153
 325:Core/Src/usbd_conf.c **** 
 704              		.loc 1 325 16 is_stmt 0 view .LVU154
 705 0002 D0F8C802 		ldr	r0, [r0, #712]
 706              	.LVL65:
 325:Core/Src/usbd_conf.c **** 
 707              		.loc 1 325 16 view .LVU155
 708 0006 FFF7FEFF 		bl	HAL_PCD_DeInit
 709              	.LVL66:
 327:Core/Src/usbd_conf.c **** 
 710              		.loc 1 327 3 is_stmt 1 view .LVU156
 327:Core/Src/usbd_conf.c **** 
 711              		.loc 1 327 17 is_stmt 0 view .LVU157
 712 000a FFF7FEFF 		bl	USBD_Get_USB_Status
 713              	.LVL67:
 329:Core/Src/usbd_conf.c **** }
 714              		.loc 1 329 3 is_stmt 1 view .LVU158
 330:Core/Src/usbd_conf.c **** 
 715              		.loc 1 330 1 is_stmt 0 view .LVU159
 716 000e 08BD     		pop	{r3, pc}
 717              		.cfi_endproc
 718              	.LFE161:
 720              		.section	.text.USBD_LL_Start,"ax",%progbits
 721              		.align	1
 722              		.global	USBD_LL_Start
 723              		.syntax unified
 724              		.thumb
 725              		.thumb_func
 727              	USBD_LL_Start:
 728              	.LVL68:
 729              	.LFB162:
 338:Core/Src/usbd_conf.c ****   HAL_StatusTypeDef hal_status = HAL_OK;
 730              		.loc 1 338 1 is_stmt 1 view -0
 731              		.cfi_startproc
 732              		@ args = 0, pretend = 0, frame = 0
 733              		@ frame_needed = 0, uses_anonymous_args = 0
 338:Core/Src/usbd_conf.c ****   HAL_StatusTypeDef hal_status = HAL_OK;
 734              		.loc 1 338 1 is_stmt 0 view .LVU161
 735 0000 08B5     		push	{r3, lr}
 736              	.LCFI14:
 737              		.cfi_def_cfa_offset 8
 738              		.cfi_offset 3, -8
 739              		.cfi_offset 14, -4
 339:Core/Src/usbd_conf.c ****   USBD_StatusTypeDef usb_status = USBD_OK;
ARM GAS  /tmp/ccIJ8eX9.s 			page 27


 740              		.loc 1 339 3 is_stmt 1 view .LVU162
 741              	.LVL69:
 340:Core/Src/usbd_conf.c **** 
 742              		.loc 1 340 3 view .LVU163
 342:Core/Src/usbd_conf.c **** 
 743              		.loc 1 342 3 view .LVU164
 342:Core/Src/usbd_conf.c **** 
 744              		.loc 1 342 16 is_stmt 0 view .LVU165
 745 0002 D0F8C802 		ldr	r0, [r0, #712]
 746              	.LVL70:
 342:Core/Src/usbd_conf.c **** 
 747              		.loc 1 342 16 view .LVU166
 748 0006 FFF7FEFF 		bl	HAL_PCD_Start
 749              	.LVL71:
 344:Core/Src/usbd_conf.c **** 
 750              		.loc 1 344 3 is_stmt 1 view .LVU167
 344:Core/Src/usbd_conf.c **** 
 751              		.loc 1 344 17 is_stmt 0 view .LVU168
 752 000a FFF7FEFF 		bl	USBD_Get_USB_Status
 753              	.LVL72:
 346:Core/Src/usbd_conf.c **** }
 754              		.loc 1 346 3 is_stmt 1 view .LVU169
 347:Core/Src/usbd_conf.c **** 
 755              		.loc 1 347 1 is_stmt 0 view .LVU170
 756 000e 08BD     		pop	{r3, pc}
 757              		.cfi_endproc
 758              	.LFE162:
 760              		.section	.text.USBD_LL_Stop,"ax",%progbits
 761              		.align	1
 762              		.global	USBD_LL_Stop
 763              		.syntax unified
 764              		.thumb
 765              		.thumb_func
 767              	USBD_LL_Stop:
 768              	.LVL73:
 769              	.LFB163:
 355:Core/Src/usbd_conf.c ****   HAL_StatusTypeDef hal_status = HAL_OK;
 770              		.loc 1 355 1 is_stmt 1 view -0
 771              		.cfi_startproc
 772              		@ args = 0, pretend = 0, frame = 0
 773              		@ frame_needed = 0, uses_anonymous_args = 0
 355:Core/Src/usbd_conf.c ****   HAL_StatusTypeDef hal_status = HAL_OK;
 774              		.loc 1 355 1 is_stmt 0 view .LVU172
 775 0000 08B5     		push	{r3, lr}
 776              	.LCFI15:
 777              		.cfi_def_cfa_offset 8
 778              		.cfi_offset 3, -8
 779              		.cfi_offset 14, -4
 356:Core/Src/usbd_conf.c ****   USBD_StatusTypeDef usb_status = USBD_OK;
 780              		.loc 1 356 3 is_stmt 1 view .LVU173
 781              	.LVL74:
 357:Core/Src/usbd_conf.c **** 
 782              		.loc 1 357 3 view .LVU174
 359:Core/Src/usbd_conf.c **** 
 783              		.loc 1 359 3 view .LVU175
 359:Core/Src/usbd_conf.c **** 
 784              		.loc 1 359 16 is_stmt 0 view .LVU176
ARM GAS  /tmp/ccIJ8eX9.s 			page 28


 785 0002 D0F8C802 		ldr	r0, [r0, #712]
 786              	.LVL75:
 359:Core/Src/usbd_conf.c **** 
 787              		.loc 1 359 16 view .LVU177
 788 0006 FFF7FEFF 		bl	HAL_PCD_Stop
 789              	.LVL76:
 361:Core/Src/usbd_conf.c **** 
 790              		.loc 1 361 3 is_stmt 1 view .LVU178
 361:Core/Src/usbd_conf.c **** 
 791              		.loc 1 361 17 is_stmt 0 view .LVU179
 792 000a FFF7FEFF 		bl	USBD_Get_USB_Status
 793              	.LVL77:
 363:Core/Src/usbd_conf.c **** }
 794              		.loc 1 363 3 is_stmt 1 view .LVU180
 364:Core/Src/usbd_conf.c **** 
 795              		.loc 1 364 1 is_stmt 0 view .LVU181
 796 000e 08BD     		pop	{r3, pc}
 797              		.cfi_endproc
 798              	.LFE163:
 800              		.section	.text.USBD_LL_OpenEP,"ax",%progbits
 801              		.align	1
 802              		.global	USBD_LL_OpenEP
 803              		.syntax unified
 804              		.thumb
 805              		.thumb_func
 807              	USBD_LL_OpenEP:
 808              	.LVL78:
 809              	.LFB164:
 375:Core/Src/usbd_conf.c ****   HAL_StatusTypeDef hal_status = HAL_OK;
 810              		.loc 1 375 1 is_stmt 1 view -0
 811              		.cfi_startproc
 812              		@ args = 0, pretend = 0, frame = 0
 813              		@ frame_needed = 0, uses_anonymous_args = 0
 375:Core/Src/usbd_conf.c ****   HAL_StatusTypeDef hal_status = HAL_OK;
 814              		.loc 1 375 1 is_stmt 0 view .LVU183
 815 0000 08B5     		push	{r3, lr}
 816              	.LCFI16:
 817              		.cfi_def_cfa_offset 8
 818              		.cfi_offset 3, -8
 819              		.cfi_offset 14, -4
 820 0002 9446     		mov	ip, r2
 821 0004 1A46     		mov	r2, r3
 822              	.LVL79:
 376:Core/Src/usbd_conf.c ****   USBD_StatusTypeDef usb_status = USBD_OK;
 823              		.loc 1 376 3 is_stmt 1 view .LVU184
 377:Core/Src/usbd_conf.c **** 
 824              		.loc 1 377 3 view .LVU185
 379:Core/Src/usbd_conf.c **** 
 825              		.loc 1 379 3 view .LVU186
 379:Core/Src/usbd_conf.c **** 
 826              		.loc 1 379 16 is_stmt 0 view .LVU187
 827 0006 6346     		mov	r3, ip
 828              	.LVL80:
 379:Core/Src/usbd_conf.c **** 
 829              		.loc 1 379 16 view .LVU188
 830 0008 D0F8C802 		ldr	r0, [r0, #712]
 831              	.LVL81:
ARM GAS  /tmp/ccIJ8eX9.s 			page 29


 379:Core/Src/usbd_conf.c **** 
 832              		.loc 1 379 16 view .LVU189
 833 000c FFF7FEFF 		bl	HAL_PCD_EP_Open
 834              	.LVL82:
 381:Core/Src/usbd_conf.c **** 
 835              		.loc 1 381 3 is_stmt 1 view .LVU190
 381:Core/Src/usbd_conf.c **** 
 836              		.loc 1 381 17 is_stmt 0 view .LVU191
 837 0010 FFF7FEFF 		bl	USBD_Get_USB_Status
 838              	.LVL83:
 383:Core/Src/usbd_conf.c **** }
 839              		.loc 1 383 3 is_stmt 1 view .LVU192
 384:Core/Src/usbd_conf.c **** 
 840              		.loc 1 384 1 is_stmt 0 view .LVU193
 841 0014 08BD     		pop	{r3, pc}
 842              		.cfi_endproc
 843              	.LFE164:
 845              		.section	.text.USBD_LL_CloseEP,"ax",%progbits
 846              		.align	1
 847              		.global	USBD_LL_CloseEP
 848              		.syntax unified
 849              		.thumb
 850              		.thumb_func
 852              	USBD_LL_CloseEP:
 853              	.LVL84:
 854              	.LFB165:
 393:Core/Src/usbd_conf.c ****   HAL_StatusTypeDef hal_status = HAL_OK;
 855              		.loc 1 393 1 is_stmt 1 view -0
 856              		.cfi_startproc
 857              		@ args = 0, pretend = 0, frame = 0
 858              		@ frame_needed = 0, uses_anonymous_args = 0
 393:Core/Src/usbd_conf.c ****   HAL_StatusTypeDef hal_status = HAL_OK;
 859              		.loc 1 393 1 is_stmt 0 view .LVU195
 860 0000 08B5     		push	{r3, lr}
 861              	.LCFI17:
 862              		.cfi_def_cfa_offset 8
 863              		.cfi_offset 3, -8
 864              		.cfi_offset 14, -4
 394:Core/Src/usbd_conf.c ****   USBD_StatusTypeDef usb_status = USBD_OK;
 865              		.loc 1 394 3 is_stmt 1 view .LVU196
 866              	.LVL85:
 395:Core/Src/usbd_conf.c **** 
 867              		.loc 1 395 3 view .LVU197
 397:Core/Src/usbd_conf.c **** 
 868              		.loc 1 397 3 view .LVU198
 397:Core/Src/usbd_conf.c **** 
 869              		.loc 1 397 16 is_stmt 0 view .LVU199
 870 0002 D0F8C802 		ldr	r0, [r0, #712]
 871              	.LVL86:
 397:Core/Src/usbd_conf.c **** 
 872              		.loc 1 397 16 view .LVU200
 873 0006 FFF7FEFF 		bl	HAL_PCD_EP_Close
 874              	.LVL87:
 399:Core/Src/usbd_conf.c **** 
 875              		.loc 1 399 3 is_stmt 1 view .LVU201
 399:Core/Src/usbd_conf.c **** 
 876              		.loc 1 399 17 is_stmt 0 view .LVU202
ARM GAS  /tmp/ccIJ8eX9.s 			page 30


 877 000a FFF7FEFF 		bl	USBD_Get_USB_Status
 878              	.LVL88:
 401:Core/Src/usbd_conf.c **** }
 879              		.loc 1 401 3 is_stmt 1 view .LVU203
 402:Core/Src/usbd_conf.c **** 
 880              		.loc 1 402 1 is_stmt 0 view .LVU204
 881 000e 08BD     		pop	{r3, pc}
 882              		.cfi_endproc
 883              	.LFE165:
 885              		.section	.text.USBD_LL_FlushEP,"ax",%progbits
 886              		.align	1
 887              		.global	USBD_LL_FlushEP
 888              		.syntax unified
 889              		.thumb
 890              		.thumb_func
 892              	USBD_LL_FlushEP:
 893              	.LVL89:
 894              	.LFB166:
 411:Core/Src/usbd_conf.c ****   HAL_StatusTypeDef hal_status = HAL_OK;
 895              		.loc 1 411 1 is_stmt 1 view -0
 896              		.cfi_startproc
 897              		@ args = 0, pretend = 0, frame = 0
 898              		@ frame_needed = 0, uses_anonymous_args = 0
 411:Core/Src/usbd_conf.c ****   HAL_StatusTypeDef hal_status = HAL_OK;
 899              		.loc 1 411 1 is_stmt 0 view .LVU206
 900 0000 08B5     		push	{r3, lr}
 901              	.LCFI18:
 902              		.cfi_def_cfa_offset 8
 903              		.cfi_offset 3, -8
 904              		.cfi_offset 14, -4
 412:Core/Src/usbd_conf.c ****   USBD_StatusTypeDef usb_status = USBD_OK;
 905              		.loc 1 412 3 is_stmt 1 view .LVU207
 906              	.LVL90:
 413:Core/Src/usbd_conf.c **** 
 907              		.loc 1 413 3 view .LVU208
 415:Core/Src/usbd_conf.c **** 
 908              		.loc 1 415 3 view .LVU209
 415:Core/Src/usbd_conf.c **** 
 909              		.loc 1 415 16 is_stmt 0 view .LVU210
 910 0002 D0F8C802 		ldr	r0, [r0, #712]
 911              	.LVL91:
 415:Core/Src/usbd_conf.c **** 
 912              		.loc 1 415 16 view .LVU211
 913 0006 FFF7FEFF 		bl	HAL_PCD_EP_Flush
 914              	.LVL92:
 417:Core/Src/usbd_conf.c **** 
 915              		.loc 1 417 3 is_stmt 1 view .LVU212
 417:Core/Src/usbd_conf.c **** 
 916              		.loc 1 417 17 is_stmt 0 view .LVU213
 917 000a FFF7FEFF 		bl	USBD_Get_USB_Status
 918              	.LVL93:
 419:Core/Src/usbd_conf.c **** }
 919              		.loc 1 419 3 is_stmt 1 view .LVU214
 420:Core/Src/usbd_conf.c **** 
 920              		.loc 1 420 1 is_stmt 0 view .LVU215
 921 000e 08BD     		pop	{r3, pc}
 922              		.cfi_endproc
ARM GAS  /tmp/ccIJ8eX9.s 			page 31


 923              	.LFE166:
 925              		.section	.text.USBD_LL_StallEP,"ax",%progbits
 926              		.align	1
 927              		.global	USBD_LL_StallEP
 928              		.syntax unified
 929              		.thumb
 930              		.thumb_func
 932              	USBD_LL_StallEP:
 933              	.LVL94:
 934              	.LFB167:
 429:Core/Src/usbd_conf.c ****   HAL_StatusTypeDef hal_status = HAL_OK;
 935              		.loc 1 429 1 is_stmt 1 view -0
 936              		.cfi_startproc
 937              		@ args = 0, pretend = 0, frame = 0
 938              		@ frame_needed = 0, uses_anonymous_args = 0
 429:Core/Src/usbd_conf.c ****   HAL_StatusTypeDef hal_status = HAL_OK;
 939              		.loc 1 429 1 is_stmt 0 view .LVU217
 940 0000 08B5     		push	{r3, lr}
 941              	.LCFI19:
 942              		.cfi_def_cfa_offset 8
 943              		.cfi_offset 3, -8
 944              		.cfi_offset 14, -4
 430:Core/Src/usbd_conf.c ****   USBD_StatusTypeDef usb_status = USBD_OK;
 945              		.loc 1 430 3 is_stmt 1 view .LVU218
 946              	.LVL95:
 431:Core/Src/usbd_conf.c **** 
 947              		.loc 1 431 3 view .LVU219
 433:Core/Src/usbd_conf.c **** 
 948              		.loc 1 433 3 view .LVU220
 433:Core/Src/usbd_conf.c **** 
 949              		.loc 1 433 16 is_stmt 0 view .LVU221
 950 0002 D0F8C802 		ldr	r0, [r0, #712]
 951              	.LVL96:
 433:Core/Src/usbd_conf.c **** 
 952              		.loc 1 433 16 view .LVU222
 953 0006 FFF7FEFF 		bl	HAL_PCD_EP_SetStall
 954              	.LVL97:
 435:Core/Src/usbd_conf.c **** 
 955              		.loc 1 435 3 is_stmt 1 view .LVU223
 435:Core/Src/usbd_conf.c **** 
 956              		.loc 1 435 17 is_stmt 0 view .LVU224
 957 000a FFF7FEFF 		bl	USBD_Get_USB_Status
 958              	.LVL98:
 437:Core/Src/usbd_conf.c **** }
 959              		.loc 1 437 3 is_stmt 1 view .LVU225
 438:Core/Src/usbd_conf.c **** 
 960              		.loc 1 438 1 is_stmt 0 view .LVU226
 961 000e 08BD     		pop	{r3, pc}
 962              		.cfi_endproc
 963              	.LFE167:
 965              		.section	.text.USBD_LL_ClearStallEP,"ax",%progbits
 966              		.align	1
 967              		.global	USBD_LL_ClearStallEP
 968              		.syntax unified
 969              		.thumb
 970              		.thumb_func
 972              	USBD_LL_ClearStallEP:
ARM GAS  /tmp/ccIJ8eX9.s 			page 32


 973              	.LVL99:
 974              	.LFB168:
 447:Core/Src/usbd_conf.c ****   HAL_StatusTypeDef hal_status = HAL_OK;
 975              		.loc 1 447 1 is_stmt 1 view -0
 976              		.cfi_startproc
 977              		@ args = 0, pretend = 0, frame = 0
 978              		@ frame_needed = 0, uses_anonymous_args = 0
 447:Core/Src/usbd_conf.c ****   HAL_StatusTypeDef hal_status = HAL_OK;
 979              		.loc 1 447 1 is_stmt 0 view .LVU228
 980 0000 08B5     		push	{r3, lr}
 981              	.LCFI20:
 982              		.cfi_def_cfa_offset 8
 983              		.cfi_offset 3, -8
 984              		.cfi_offset 14, -4
 448:Core/Src/usbd_conf.c ****   USBD_StatusTypeDef usb_status = USBD_OK;
 985              		.loc 1 448 3 is_stmt 1 view .LVU229
 986              	.LVL100:
 449:Core/Src/usbd_conf.c **** 
 987              		.loc 1 449 3 view .LVU230
 451:Core/Src/usbd_conf.c **** 
 988              		.loc 1 451 3 view .LVU231
 451:Core/Src/usbd_conf.c **** 
 989              		.loc 1 451 16 is_stmt 0 view .LVU232
 990 0002 D0F8C802 		ldr	r0, [r0, #712]
 991              	.LVL101:
 451:Core/Src/usbd_conf.c **** 
 992              		.loc 1 451 16 view .LVU233
 993 0006 FFF7FEFF 		bl	HAL_PCD_EP_ClrStall
 994              	.LVL102:
 453:Core/Src/usbd_conf.c **** 
 995              		.loc 1 453 3 is_stmt 1 view .LVU234
 453:Core/Src/usbd_conf.c **** 
 996              		.loc 1 453 17 is_stmt 0 view .LVU235
 997 000a FFF7FEFF 		bl	USBD_Get_USB_Status
 998              	.LVL103:
 455:Core/Src/usbd_conf.c **** }
 999              		.loc 1 455 3 is_stmt 1 view .LVU236
 456:Core/Src/usbd_conf.c **** 
 1000              		.loc 1 456 1 is_stmt 0 view .LVU237
 1001 000e 08BD     		pop	{r3, pc}
 1002              		.cfi_endproc
 1003              	.LFE168:
 1005              		.section	.text.USBD_LL_IsStallEP,"ax",%progbits
 1006              		.align	1
 1007              		.global	USBD_LL_IsStallEP
 1008              		.syntax unified
 1009              		.thumb
 1010              		.thumb_func
 1012              	USBD_LL_IsStallEP:
 1013              	.LVL104:
 1014              	.LFB169:
 465:Core/Src/usbd_conf.c ****   PCD_HandleTypeDef *hpcd = (PCD_HandleTypeDef*) pdev->pData;
 1015              		.loc 1 465 1 is_stmt 1 view -0
 1016              		.cfi_startproc
 1017              		@ args = 0, pretend = 0, frame = 0
 1018              		@ frame_needed = 0, uses_anonymous_args = 0
 1019              		@ link register save eliminated.
ARM GAS  /tmp/ccIJ8eX9.s 			page 33


 466:Core/Src/usbd_conf.c **** 
 1020              		.loc 1 466 3 view .LVU239
 466:Core/Src/usbd_conf.c **** 
 1021              		.loc 1 466 22 is_stmt 0 view .LVU240
 1022 0000 D0F8C832 		ldr	r3, [r0, #712]
 1023              	.LVL105:
 468:Core/Src/usbd_conf.c ****   {
 1024              		.loc 1 468 3 is_stmt 1 view .LVU241
 468:Core/Src/usbd_conf.c ****   {
 1025              		.loc 1 468 5 is_stmt 0 view .LVU242
 1026 0004 11F0800F 		tst	r1, #128
 1027 0008 08D1     		bne	.L73
 474:Core/Src/usbd_conf.c ****   }
 1028              		.loc 1 474 5 is_stmt 1 view .LVU243
 474:Core/Src/usbd_conf.c ****   }
 1029              		.loc 1 474 33 is_stmt 0 view .LVU244
 1030 000a 01F07F01 		and	r1, r1, #127
 1031              	.LVL106:
 474:Core/Src/usbd_conf.c ****   }
 1032              		.loc 1 474 40 view .LVU245
 1033 000e 01EBC101 		add	r1, r1, r1, lsl #3
 1034 0012 03EB8101 		add	r1, r3, r1, lsl #2
 1035 0016 91F85602 		ldrb	r0, [r1, #598]	@ zero_extendqisi2
 1036              	.LVL107:
 476:Core/Src/usbd_conf.c **** 
 1037              		.loc 1 476 1 view .LVU246
 1038 001a 7047     		bx	lr
 1039              	.LVL108:
 1040              	.L73:
 470:Core/Src/usbd_conf.c ****   }
 1041              		.loc 1 470 5 is_stmt 1 view .LVU247
 470:Core/Src/usbd_conf.c ****   }
 1042              		.loc 1 470 32 is_stmt 0 view .LVU248
 1043 001c 01F07F01 		and	r1, r1, #127
 1044              	.LVL109:
 470:Core/Src/usbd_conf.c ****   }
 1045              		.loc 1 470 39 view .LVU249
 1046 0020 01EBC101 		add	r1, r1, r1, lsl #3
 1047 0024 03EB8101 		add	r1, r3, r1, lsl #2
 1048 0028 887D     		ldrb	r0, [r1, #22]	@ zero_extendqisi2
 1049              	.LVL110:
 470:Core/Src/usbd_conf.c ****   }
 1050              		.loc 1 470 39 view .LVU250
 1051 002a 7047     		bx	lr
 1052              		.cfi_endproc
 1053              	.LFE169:
 1055              		.section	.text.USBD_LL_SetUSBAddress,"ax",%progbits
 1056              		.align	1
 1057              		.global	USBD_LL_SetUSBAddress
 1058              		.syntax unified
 1059              		.thumb
 1060              		.thumb_func
 1062              	USBD_LL_SetUSBAddress:
 1063              	.LVL111:
 1064              	.LFB170:
 485:Core/Src/usbd_conf.c ****   HAL_StatusTypeDef hal_status = HAL_OK;
 1065              		.loc 1 485 1 is_stmt 1 view -0
ARM GAS  /tmp/ccIJ8eX9.s 			page 34


 1066              		.cfi_startproc
 1067              		@ args = 0, pretend = 0, frame = 0
 1068              		@ frame_needed = 0, uses_anonymous_args = 0
 485:Core/Src/usbd_conf.c ****   HAL_StatusTypeDef hal_status = HAL_OK;
 1069              		.loc 1 485 1 is_stmt 0 view .LVU252
 1070 0000 08B5     		push	{r3, lr}
 1071              	.LCFI21:
 1072              		.cfi_def_cfa_offset 8
 1073              		.cfi_offset 3, -8
 1074              		.cfi_offset 14, -4
 486:Core/Src/usbd_conf.c ****   USBD_StatusTypeDef usb_status = USBD_OK;
 1075              		.loc 1 486 3 is_stmt 1 view .LVU253
 1076              	.LVL112:
 487:Core/Src/usbd_conf.c **** 
 1077              		.loc 1 487 3 view .LVU254
 489:Core/Src/usbd_conf.c **** 
 1078              		.loc 1 489 3 view .LVU255
 489:Core/Src/usbd_conf.c **** 
 1079              		.loc 1 489 16 is_stmt 0 view .LVU256
 1080 0002 D0F8C802 		ldr	r0, [r0, #712]
 1081              	.LVL113:
 489:Core/Src/usbd_conf.c **** 
 1082              		.loc 1 489 16 view .LVU257
 1083 0006 FFF7FEFF 		bl	HAL_PCD_SetAddress
 1084              	.LVL114:
 491:Core/Src/usbd_conf.c **** 
 1085              		.loc 1 491 3 is_stmt 1 view .LVU258
 491:Core/Src/usbd_conf.c **** 
 1086              		.loc 1 491 17 is_stmt 0 view .LVU259
 1087 000a FFF7FEFF 		bl	USBD_Get_USB_Status
 1088              	.LVL115:
 493:Core/Src/usbd_conf.c **** }
 1089              		.loc 1 493 3 is_stmt 1 view .LVU260
 494:Core/Src/usbd_conf.c **** 
 1090              		.loc 1 494 1 is_stmt 0 view .LVU261
 1091 000e 08BD     		pop	{r3, pc}
 1092              		.cfi_endproc
 1093              	.LFE170:
 1095              		.section	.text.USBD_LL_Transmit,"ax",%progbits
 1096              		.align	1
 1097              		.global	USBD_LL_Transmit
 1098              		.syntax unified
 1099              		.thumb
 1100              		.thumb_func
 1102              	USBD_LL_Transmit:
 1103              	.LVL116:
 1104              	.LFB171:
 505:Core/Src/usbd_conf.c ****   HAL_StatusTypeDef hal_status = HAL_OK;
 1105              		.loc 1 505 1 is_stmt 1 view -0
 1106              		.cfi_startproc
 1107              		@ args = 0, pretend = 0, frame = 0
 1108              		@ frame_needed = 0, uses_anonymous_args = 0
 505:Core/Src/usbd_conf.c ****   HAL_StatusTypeDef hal_status = HAL_OK;
 1109              		.loc 1 505 1 is_stmt 0 view .LVU263
 1110 0000 08B5     		push	{r3, lr}
 1111              	.LCFI22:
 1112              		.cfi_def_cfa_offset 8
ARM GAS  /tmp/ccIJ8eX9.s 			page 35


 1113              		.cfi_offset 3, -8
 1114              		.cfi_offset 14, -4
 506:Core/Src/usbd_conf.c ****   USBD_StatusTypeDef usb_status = USBD_OK;
 1115              		.loc 1 506 3 is_stmt 1 view .LVU264
 1116              	.LVL117:
 507:Core/Src/usbd_conf.c **** 
 1117              		.loc 1 507 3 view .LVU265
 509:Core/Src/usbd_conf.c **** 
 1118              		.loc 1 509 3 view .LVU266
 509:Core/Src/usbd_conf.c **** 
 1119              		.loc 1 509 16 is_stmt 0 view .LVU267
 1120 0002 D0F8C802 		ldr	r0, [r0, #712]
 1121              	.LVL118:
 509:Core/Src/usbd_conf.c **** 
 1122              		.loc 1 509 16 view .LVU268
 1123 0006 FFF7FEFF 		bl	HAL_PCD_EP_Transmit
 1124              	.LVL119:
 511:Core/Src/usbd_conf.c **** 
 1125              		.loc 1 511 3 is_stmt 1 view .LVU269
 511:Core/Src/usbd_conf.c **** 
 1126              		.loc 1 511 17 is_stmt 0 view .LVU270
 1127 000a FFF7FEFF 		bl	USBD_Get_USB_Status
 1128              	.LVL120:
 513:Core/Src/usbd_conf.c **** }
 1129              		.loc 1 513 3 is_stmt 1 view .LVU271
 514:Core/Src/usbd_conf.c **** 
 1130              		.loc 1 514 1 is_stmt 0 view .LVU272
 1131 000e 08BD     		pop	{r3, pc}
 1132              		.cfi_endproc
 1133              	.LFE171:
 1135              		.section	.text.USBD_LL_PrepareReceive,"ax",%progbits
 1136              		.align	1
 1137              		.global	USBD_LL_PrepareReceive
 1138              		.syntax unified
 1139              		.thumb
 1140              		.thumb_func
 1142              	USBD_LL_PrepareReceive:
 1143              	.LVL121:
 1144              	.LFB172:
 525:Core/Src/usbd_conf.c ****   HAL_StatusTypeDef hal_status = HAL_OK;
 1145              		.loc 1 525 1 is_stmt 1 view -0
 1146              		.cfi_startproc
 1147              		@ args = 0, pretend = 0, frame = 0
 1148              		@ frame_needed = 0, uses_anonymous_args = 0
 525:Core/Src/usbd_conf.c ****   HAL_StatusTypeDef hal_status = HAL_OK;
 1149              		.loc 1 525 1 is_stmt 0 view .LVU274
 1150 0000 08B5     		push	{r3, lr}
 1151              	.LCFI23:
 1152              		.cfi_def_cfa_offset 8
 1153              		.cfi_offset 3, -8
 1154              		.cfi_offset 14, -4
 526:Core/Src/usbd_conf.c ****   USBD_StatusTypeDef usb_status = USBD_OK;
 1155              		.loc 1 526 3 is_stmt 1 view .LVU275
 1156              	.LVL122:
 527:Core/Src/usbd_conf.c **** 
 1157              		.loc 1 527 3 view .LVU276
 529:Core/Src/usbd_conf.c **** 
ARM GAS  /tmp/ccIJ8eX9.s 			page 36


 1158              		.loc 1 529 3 view .LVU277
 529:Core/Src/usbd_conf.c **** 
 1159              		.loc 1 529 16 is_stmt 0 view .LVU278
 1160 0002 D0F8C802 		ldr	r0, [r0, #712]
 1161              	.LVL123:
 529:Core/Src/usbd_conf.c **** 
 1162              		.loc 1 529 16 view .LVU279
 1163 0006 FFF7FEFF 		bl	HAL_PCD_EP_Receive
 1164              	.LVL124:
 531:Core/Src/usbd_conf.c **** 
 1165              		.loc 1 531 3 is_stmt 1 view .LVU280
 531:Core/Src/usbd_conf.c **** 
 1166              		.loc 1 531 17 is_stmt 0 view .LVU281
 1167 000a FFF7FEFF 		bl	USBD_Get_USB_Status
 1168              	.LVL125:
 533:Core/Src/usbd_conf.c **** }
 1169              		.loc 1 533 3 is_stmt 1 view .LVU282
 534:Core/Src/usbd_conf.c **** 
 1170              		.loc 1 534 1 is_stmt 0 view .LVU283
 1171 000e 08BD     		pop	{r3, pc}
 1172              		.cfi_endproc
 1173              	.LFE172:
 1175              		.section	.text.USBD_LL_GetRxDataSize,"ax",%progbits
 1176              		.align	1
 1177              		.global	USBD_LL_GetRxDataSize
 1178              		.syntax unified
 1179              		.thumb
 1180              		.thumb_func
 1182              	USBD_LL_GetRxDataSize:
 1183              	.LVL126:
 1184              	.LFB173:
 543:Core/Src/usbd_conf.c ****   return HAL_PCD_EP_GetRxCount((PCD_HandleTypeDef*) pdev->pData, ep_addr);
 1185              		.loc 1 543 1 is_stmt 1 view -0
 1186              		.cfi_startproc
 1187              		@ args = 0, pretend = 0, frame = 0
 1188              		@ frame_needed = 0, uses_anonymous_args = 0
 543:Core/Src/usbd_conf.c ****   return HAL_PCD_EP_GetRxCount((PCD_HandleTypeDef*) pdev->pData, ep_addr);
 1189              		.loc 1 543 1 is_stmt 0 view .LVU285
 1190 0000 08B5     		push	{r3, lr}
 1191              	.LCFI24:
 1192              		.cfi_def_cfa_offset 8
 1193              		.cfi_offset 3, -8
 1194              		.cfi_offset 14, -4
 544:Core/Src/usbd_conf.c **** }
 1195              		.loc 1 544 3 is_stmt 1 view .LVU286
 544:Core/Src/usbd_conf.c **** }
 1196              		.loc 1 544 10 is_stmt 0 view .LVU287
 1197 0002 D0F8C802 		ldr	r0, [r0, #712]
 1198              	.LVL127:
 544:Core/Src/usbd_conf.c **** }
 1199              		.loc 1 544 10 view .LVU288
 1200 0006 FFF7FEFF 		bl	HAL_PCD_EP_GetRxCount
 1201              	.LVL128:
 545:Core/Src/usbd_conf.c **** 
 1202              		.loc 1 545 1 view .LVU289
 1203 000a 08BD     		pop	{r3, pc}
 1204              		.cfi_endproc
ARM GAS  /tmp/ccIJ8eX9.s 			page 37


 1205              	.LFE173:
 1207              		.section	.text.USBD_LL_Delay,"ax",%progbits
 1208              		.align	1
 1209              		.global	USBD_LL_Delay
 1210              		.syntax unified
 1211              		.thumb
 1212              		.thumb_func
 1214              	USBD_LL_Delay:
 1215              	.LVL129:
 1216              	.LFB174:
 553:Core/Src/usbd_conf.c ****   HAL_Delay(Delay);
 1217              		.loc 1 553 1 is_stmt 1 view -0
 1218              		.cfi_startproc
 1219              		@ args = 0, pretend = 0, frame = 0
 1220              		@ frame_needed = 0, uses_anonymous_args = 0
 553:Core/Src/usbd_conf.c ****   HAL_Delay(Delay);
 1221              		.loc 1 553 1 is_stmt 0 view .LVU291
 1222 0000 08B5     		push	{r3, lr}
 1223              	.LCFI25:
 1224              		.cfi_def_cfa_offset 8
 1225              		.cfi_offset 3, -8
 1226              		.cfi_offset 14, -4
 554:Core/Src/usbd_conf.c **** }
 1227              		.loc 1 554 3 is_stmt 1 view .LVU292
 1228 0002 FFF7FEFF 		bl	HAL_Delay
 1229              	.LVL130:
 555:Core/Src/usbd_conf.c **** 
 1230              		.loc 1 555 1 is_stmt 0 view .LVU293
 1231 0006 08BD     		pop	{r3, pc}
 1232              		.cfi_endproc
 1233              	.LFE174:
 1235              		.section	.text.USBD_static_malloc,"ax",%progbits
 1236              		.align	1
 1237              		.global	USBD_static_malloc
 1238              		.syntax unified
 1239              		.thumb
 1240              		.thumb_func
 1242              	USBD_static_malloc:
 1243              	.LVL131:
 1244              	.LFB175:
 563:Core/Src/usbd_conf.c ****   UNUSED(size);
 1245              		.loc 1 563 1 is_stmt 1 view -0
 1246              		.cfi_startproc
 1247              		@ args = 0, pretend = 0, frame = 0
 1248              		@ frame_needed = 0, uses_anonymous_args = 0
 1249              		@ link register save eliminated.
 564:Core/Src/usbd_conf.c ****   static uint32_t mem[(sizeof(USBD_GS_CAN_HandleTypeDef)/4)+1];/* On 32-bit boundary */
 1250              		.loc 1 564 3 view .LVU295
 565:Core/Src/usbd_conf.c ****   return mem;
 1251              		.loc 1 565 3 view .LVU296
 566:Core/Src/usbd_conf.c **** }
 1252              		.loc 1 566 3 view .LVU297
 567:Core/Src/usbd_conf.c **** 
 1253              		.loc 1 567 1 is_stmt 0 view .LVU298
 1254 0000 0048     		ldr	r0, .L85
 1255              	.LVL132:
 567:Core/Src/usbd_conf.c **** 
ARM GAS  /tmp/ccIJ8eX9.s 			page 38


 1256              		.loc 1 567 1 view .LVU299
 1257 0002 7047     		bx	lr
 1258              	.L86:
 1259              		.align	2
 1260              	.L85:
 1261 0004 00000000 		.word	.LANCHOR1
 1262              		.cfi_endproc
 1263              	.LFE175:
 1265              		.section	.text.USBD_static_free,"ax",%progbits
 1266              		.align	1
 1267              		.global	USBD_static_free
 1268              		.syntax unified
 1269              		.thumb
 1270              		.thumb_func
 1272              	USBD_static_free:
 1273              	.LVL133:
 1274              	.LFB176:
 575:Core/Src/usbd_conf.c ****   UNUSED(p);
 1275              		.loc 1 575 1 is_stmt 1 view -0
 1276              		.cfi_startproc
 1277              		@ args = 0, pretend = 0, frame = 0
 1278              		@ frame_needed = 0, uses_anonymous_args = 0
 1279              		@ link register save eliminated.
 576:Core/Src/usbd_conf.c **** }
 1280              		.loc 1 576 3 view .LVU301
 577:Core/Src/usbd_conf.c **** 
 1281              		.loc 1 577 1 is_stmt 0 view .LVU302
 1282 0000 7047     		bx	lr
 1283              		.cfi_endproc
 1284              	.LFE176:
 1286              		.global	hpcd_USB_OTG_FS
 1287              		.section	.bss.hpcd_USB_OTG_FS,"aw",%nobits
 1288              		.align	2
 1289              		.set	.LANCHOR0,. + 0
 1292              	hpcd_USB_OTG_FS:
 1293 0000 00000000 		.space	1252
 1293      00000000 
 1293      00000000 
 1293      00000000 
 1293      00000000 
 1294              		.section	.bss.mem.0,"aw",%nobits
 1295              		.align	2
 1296              		.set	.LANCHOR1,. + 0
 1299              	mem.0:
 1300 0000 00000000 		.space	192
 1300      00000000 
 1300      00000000 
 1300      00000000 
 1300      00000000 
 1301              		.text
 1302              	.Letext0:
 1303              		.file 2 "/home/joseluiz/Programs/gcc-arm-none-eabi-10.3-2021.10-x86_64-linux/arm-none-eabi/include
 1304              		.file 3 "/home/joseluiz/Programs/gcc-arm-none-eabi-10.3-2021.10-x86_64-linux/arm-none-eabi/include
 1305              		.file 4 "Drivers/CMSIS/Include/core_cm7.h"
 1306              		.file 5 "Drivers/cmsis_device_h7/Include/stm32h743xx.h"
 1307              		.file 6 "Drivers/cmsis_device_h7/Include/stm32h7xx.h"
 1308              		.file 7 "Drivers/stm32h7xx_hal_driver/Inc/stm32h7xx_hal_def.h"
ARM GAS  /tmp/ccIJ8eX9.s 			page 39


 1309              		.file 8 "Drivers/stm32h7xx_hal_driver/Inc/stm32h7xx_ll_usb.h"
 1310              		.file 9 "Drivers/stm32h7xx_hal_driver/Inc/stm32h7xx_hal_pcd.h"
 1311              		.file 10 "Middlewares/ST/STM32_USB_Device_Library/Core/Inc/usbd_def.h"
 1312              		.file 11 "Core/Inc/gs_usb.h"
 1313              		.file 12 "Drivers/stm32h7xx_hal_driver/Inc/stm32h7xx_hal.h"
 1314              		.file 13 "Drivers/stm32h7xx_hal_driver/Inc/stm32h7xx_hal_pcd_ex.h"
 1315              		.file 14 "Middlewares/ST/STM32_USB_Device_Library/Core/Inc/usbd_core.h"
 1316              		.file 15 "Middlewares/ST/STM32_USB_Device_Library/Core/Inc/usbd_ctlreq.h"
 1317              		.file 16 "Core/Inc/usbd_gs_can.h"
ARM GAS  /tmp/ccIJ8eX9.s 			page 40

